Archive member included because of file (symbol)

novoalignCSMPI.a(novoalignMPI_main.o)
                              /usr/lib/gcc/x86_64-linux-gnu/4.6.1/../../../x86_64-linux-gnu/crt1.o (main)
novoalignCSMPI.a(fragdist.o)  novoalignCSMPI.a(novoalignMPI_main.o) (_ZN8fragdist11addfragmentEi)
novoalignCSMPI.a(indelstats.o)
                              novoalignCSMPI.a(novoalignMPI_main.o) (_ZN10indelStats4saveERSsS0_)
novoalignCSMPI.a(ksgroups.o)  novoalignCSMPI.a(novoalignMPI_main.o) (_ZN7ksgroupD1Ev)
novoalignCSMPI.a(ksindex.o)   novoalignCSMPI.a(ksgroups.o) (_ZN9seqheader6headerER7ksindex)
novoalignCSMPI.a(novoalignmpi.o)
                              novoalignCSMPI.a(novoalignMPI_main.o) (_ZTV12novoalignmpi)
novoalignCSMPI.a(novolib.o)   novoalignCSMPI.a(novoalignmpi.o) (_Z9chkstderrv)
novoalignCSMPI.a(novoparam.o)
                              novoalignCSMPI.a(novoalignmpi.o) (_ZN9novoparam7optargsEiPPcb)
novoalignCSMPI.a(posteriorP.o)
                              novoalignCSMPI.a(novoalignmpi.o) (_ZN10posteriorP10initstaticEv)
novoalignCSMPI.a(prbcalibrateCS.o)
                              novoalignCSMPI.a(novoalignmpi.o) (_ZN12prbcalibrate5resetEv)
novoalignCSMPI.a(prbcalibrateMPI.o)
                              novoalignCSMPI.a(novoalignmpi.o) (_ZN15prbcalibrateMPI8mmcountsERi)
novoalignCSMPI.a(qualconvert.o)
                              novoalignCSMPI.a(novoparam.o) (_ZN11qualconvert11notphred3scE)
novoalignCSMPI.a(queryfolder.o)
                              novoalignCSMPI.a(novoalignmpi.o) (_ZN11queryfolder4openEv)
novoalignCSMPI.a(queryformatCS.o)
                              novoalignCSMPI.a(queryfolder.o) (_ZN11queryformat11checkformatERSsPcR9novoparam)
novoalignCSMPI.a(queryreader.o)
                              novoalignCSMPI.a(queryfolder.o) (_ZN11queryreader4openE13t_queryformatPKcS2_)
novoalignCSMPI.a(queryreaderCS.o)
                              novoalignCSMPI.a(novoalignmpi.o) (_ZN11queryreader4nextEv)
novoalignCSMPI.a(reporter.o)  novoalignCSMPI.a(novoalignmpi.o) (_ZN8reporter4finiEv)
novoalignCSMPI.a(rptNative.o)
                              novoalignCSMPI.a(novoalignmpi.o) (_ZTV9rptNative)
novoalignCSMPI.a(rptSAM.o)    novoalignCSMPI.a(novoalignmpi.o) (_ZTV6rptSAM)
novoalignCSMPI.a(TThread.o)   novoalignCSMPI.a(fragdist.o) (_ZN6TMutex4lockEv)
novoalignCSMPI.a(TThreadPool.o)
                              novoalignCSMPI.a(novoalignmpi.o) (_ZN11TThreadPool4TJobD2Ev)
novoalignCSMPI.a(TTimer.o)    novoalignCSMPI.a(novoalignmpi.o) (_ZN6TTimer11system_timeEv)
novoalignCSMPI.a(wmsearch.o)  novoalignCSMPI.a(novoalignmpi.o) (_ZN8wmsearch6searchE6t_side)
novoalignCSMPI.a(linkdate.o)  novoalignCSMPI.a(novoalignmpi.o) (linktime)
novoalignCSMPI.a(filehandle.o)
                              novoalignCSMPI.a(queryreader.o) (_ZN10filehandle6ispipeEv)
novoalignCSMPI.a(findamateCS.o)
                              novoalignCSMPI.a(wmsearch.o) (_ZN9findamate9alignsimdEbP4nawmPciPhi)
novoalignCSMPI.a(fragdistMPI.o)
                              novoalignCSMPI.a(novoalignmpi.o) (_ZN11fragdistMPI12setpenaltiesEPvi)
novoalignCSMPI.a(iubcodes.o)  novoalignCSMPI.a(novoparam.o) (asciitoiub)
novoalignCSMPI.a(keygenCS.o)  novoalignCSMPI.a(wmsearch.o) (_ZN6keygen4initEiill)
novoalignCSMPI.a(license.o)   novoalignCSMPI.a(novoalignmpi.o) (_ZN7license11readlicenseEPcS0_)
novoalignCSMPI.a(nawmCS.o)    novoalignCSMPI.a(wmsearch.o) (_ZN4nawm5setrcEPS_)
novoalignCSMPI.a(needleCS.o)  novoalignCSMPI.a(wmsearch.o) (_ZN6needle5alignEP4nawmPhi)
novoalignCSMPI.a(qryopt.o)    novoalignCSMPI.a(wmsearch.o) (_ZN6qryopt8optimiseEliiN7ksindex5indexEP6keygen)
novoalignCSMPI.a(shortnwCS.o)
                              novoalignCSMPI.a(wmsearch.o) (_ZN7shortnw6optmxgEi)
novoalignCSMPI.a(cscodes.o)   novoalignCSMPI.a(findamateCS.o) (_ZN7cscodes9tqsnp_m64E)
./tcmalloc/libtcmalloc.a(libtcmalloc_la-tcmalloc.o)
                              novoalignCSMPI.a(novoalignMPI_main.o) (_ZdlPv)
./tcmalloc/libtcmalloc.a(atomicops-internals-x86.o)
                              ./tcmalloc/libtcmalloc.a(libtcmalloc_la-tcmalloc.o) (AtomicOps_Internalx86CPUFeatures)
./tcmalloc/libtcmalloc.a(dynamic_annotations.o)
                              ./tcmalloc/libtcmalloc.a(libtcmalloc_la-tcmalloc.o) (RunningOnValgrind)
./tcmalloc/libtcmalloc.a(libtcmalloc_internal_la-central_freelist.o)
                              ./tcmalloc/libtcmalloc.a(libtcmalloc_la-tcmalloc.o) (_ZN8tcmalloc15CentralFreeList11InsertRangeEPvS1_i)
./tcmalloc/libtcmalloc.a(libtcmalloc_internal_la-common.o)
                              ./tcmalloc/libtcmalloc.a(libtcmalloc_la-tcmalloc.o) (_ZN8tcmalloc16AlignmentForSizeEm)
./tcmalloc/libtcmalloc.a(libtcmalloc_internal_la-internal_logging.o)
                              ./tcmalloc/libtcmalloc.a(libtcmalloc_la-tcmalloc.o) (_ZN8tcmalloc3LogENS_7LogModeEPKciNS_7LogItemES3_S3_S3_)
./tcmalloc/libtcmalloc.a(libtcmalloc_internal_la-malloc_extension.o)
                              ./tcmalloc/libtcmalloc.a(libtcmalloc_la-tcmalloc.o) (_ZN15MallocExtensionD2Ev)
./tcmalloc/libtcmalloc.a(libtcmalloc_internal_la-malloc_hook.o)
                              ./tcmalloc/libtcmalloc.a(libtcmalloc_la-tcmalloc.o) (_ZN4base8internal13delete_hooks_E)
./tcmalloc/libtcmalloc.a(libtcmalloc_internal_la-maybe_threads.o)
                              ./tcmalloc/libtcmalloc.a(libtcmalloc_la-tcmalloc.o) (_Z29perftools_pthread_getspecificj)
./tcmalloc/libtcmalloc.a(libtcmalloc_internal_la-page_heap.o)
                              ./tcmalloc/libtcmalloc.a(libtcmalloc_la-tcmalloc.o) (_ZN8tcmalloc8PageHeap5SplitEPNS_4SpanEm)
./tcmalloc/libtcmalloc.a(libtcmalloc_internal_la-sampler.o)
                              ./tcmalloc/libtcmalloc.a(libtcmalloc_la-tcmalloc.o) (_ZN61FLAG__namespace_do_not_use_directly_use_DECLARE_int64_instead31FLAGS_tcmalloc_sample_parameterE)
./tcmalloc/libtcmalloc.a(libtcmalloc_internal_la-span.o)
                              ./tcmalloc/libtcmalloc.a(libtcmalloc_internal_la-page_heap.o) (_ZN8tcmalloc7NewSpanEmm)
./tcmalloc/libtcmalloc.a(libtcmalloc_internal_la-stack_trace_table.o)
                              ./tcmalloc/libtcmalloc.a(libtcmalloc_la-tcmalloc.o) (_ZN8tcmalloc15StackTraceTable8AddTraceERKNS_10StackTraceE)
./tcmalloc/libtcmalloc.a(libtcmalloc_internal_la-static_vars.o)
                              ./tcmalloc/libtcmalloc.a(libtcmalloc_la-tcmalloc.o) (_ZN8tcmalloc6Static14central_cache_E)
./tcmalloc/libtcmalloc.a(libtcmalloc_internal_la-system-alloc.o)
                              ./tcmalloc/libtcmalloc.a(libtcmalloc_la-tcmalloc.o) (sys_alloc)
./tcmalloc/libtcmalloc.a(libtcmalloc_internal_la-thread_cache.o)
                              ./tcmalloc/libtcmalloc.a(libtcmalloc_la-tcmalloc.o) (_ZN8tcmalloc24CheckIfKernelSupportsTLSEv)
./tcmalloc/libtcmalloc.a(logging.o)
                              ./tcmalloc/libtcmalloc.a(atomicops-internals-x86.o) (_ZN61FLAG__namespace_do_not_use_directly_use_DECLARE_int32_instead13FLAGS_verboseE)
./tcmalloc/libtcmalloc.a(spinlock.o)
                              ./tcmalloc/libtcmalloc.a(libtcmalloc_la-tcmalloc.o) (_ZN8SpinLock8SlowLockEv)
./tcmalloc/libtcmalloc.a(spinlock_internal.o)
                              ./tcmalloc/libtcmalloc.a(spinlock.o) (_ZN4base8internal13SpinLockDelayEPViii)
./tcmalloc/libtcmalloc.a(stacktrace.o)
                              ./tcmalloc/libtcmalloc.a(libtcmalloc_la-tcmalloc.o) (_Z13GetStackTracePPvii)
./tcmalloc/libtcmalloc.a(sysinfo.o)
                              ./tcmalloc/libtcmalloc.a(spinlock.o) (_Z7NumCPUsv)
./tcmalloc/libtcmalloc.a(libtcmalloc_la-heap-checker.o)
                              ./tcmalloc/libtcmalloc.a(libtcmalloc_internal_la-malloc_extension.o) (_ZN15HeapLeakChecker14DoIgnoreObjectEPKv)
./tcmalloc/libtcmalloc.a(libtcmalloc_la-heap-checker-bcad.o)
                              ./tcmalloc/libtcmalloc.a(libtcmalloc_la-heap-checker.o) (heap_leak_checker_bcad_variable)
./tcmalloc/libtcmalloc.a(libtcmalloc_internal_la-heap-profile-table.o)
                              ./tcmalloc/libtcmalloc.a(libtcmalloc_la-heap-checker.o) (_ZN16HeapProfileTable19GetCallerStackTraceEiPPv)
./tcmalloc/libtcmalloc.a(libtcmalloc_internal_la-low_level_alloc.o)
                              ./tcmalloc/libtcmalloc.a(libtcmalloc_la-heap-checker.o) (_ZN13LowLevelAlloc4FreeEPv)
./tcmalloc/libtcmalloc.a(libtcmalloc_internal_la-memory_region_map.o)
                              ./tcmalloc/libtcmalloc.a(libtcmalloc_la-heap-checker.o) (_ZN15MemoryRegionMap4LockEv)
./tcmalloc/libtcmalloc.a(libtcmalloc_internal_la-raw_printer.o)
                              ./tcmalloc/libtcmalloc.a(libtcmalloc_internal_la-heap-profile-table.o) (_ZN4base10RawPrinter6PrintfEPKcz)
./tcmalloc/libtcmalloc.a(libtcmalloc_internal_la-symbolize.o)
                              ./tcmalloc/libtcmalloc.a(libtcmalloc_internal_la-heap-profile-table.o) (_ZN11SymbolTable9SymbolizeEv)
./tcmalloc/libtcmalloc.a(libtcmalloc_la-linuxthreads.o)
                              ./tcmalloc/libtcmalloc.a(libtcmalloc_la-heap-checker.o) (ListAllProcessThreads)
./unwind/libunwind.a(backtrace.o)
                              trace.o (backtrace)
./unwind/libunwind.a(Lget_reg.o)
                              ./tcmalloc/libtcmalloc.a(stacktrace.o) (_ULx86_64_get_reg)
./unwind/libunwind.a(Linit_local.o)
                              ./tcmalloc/libtcmalloc.a(stacktrace.o) (_ULx86_64_init_local)
./unwind/libunwind.a(Lregs.o)
                              ./unwind/libunwind.a(Lget_reg.o) (_ULx86_64_access_reg)
./unwind/libunwind.a(lt1-Lstep.o)
                              ./tcmalloc/libtcmalloc.a(stacktrace.o) (_ULx86_64_step)
./unwind/libunwind.a(getcontext.o)
                              ./tcmalloc/libtcmalloc.a(stacktrace.o) (_Ux86_64_getcontext)
./unwind/libunwind.a(Lstep.o)
                              ./unwind/libunwind.a(lt1-Lstep.o) (_ULx86_64_dwarf_step)
./unwind/libunwind.a(Lglobal.o)
                              ./unwind/libunwind.a(Linit_local.o) (_ULx86_64_init)
./unwind/libunwind.a(Linit.o)
                              ./unwind/libunwind.a(Lglobal.o) (_ULx86_64_local_addr_space_init)
./unwind/libunwind.a(Lis_signal_frame.o)
                              ./unwind/libunwind.a(lt1-Lstep.o) (_ULx86_64_is_signal_frame)
./unwind/libunwind.a(Lresume.o)
                              ./unwind/libunwind.a(Linit.o) (_ULx86_64_local_resume)
./unwind/libunwind.a(init.o)  ./unwind/libunwind.a(Lglobal.o) (_UIx86_64_mi_init)
./unwind/libunwind.a(flush_cache.o)
                              ./unwind/libunwind.a(Linit.o) (_Ux86_64_flush_cache)
./unwind/libunwind.a(global.o)
                              ./unwind/libunwind.a(Lglobal.o) (_Ux86_64_dwarf_init)
./unwind/libunwind.a(elf64.o)
                              ./unwind/libunwind.a(Linit.o) (_Uelf64_get_proc_name)
./unwind/libunwind.a(is_fpreg.o)
                              ./unwind/libunwind.a(Linit.o) (_Ux86_64_is_fpreg)
./unwind/libunwind.a(Lget_accessors.o)
                              ./unwind/libunwind.a(Lis_signal_frame.o) (_Ux86_64_get_accessors)
./unwind/libunwind.a(Lparser.o)
                              ./unwind/libunwind.a(Lresume.o) (_ULx86_64_dwarf_make_proc_info)
./unwind/libunwind.a(Lpe.o)   ./unwind/libunwind.a(Lparser.o) (_ULx86_64_dwarf_read_encoded_pointer)
./unwind/libunwind.a(Lfind_proc_info-lsb.o)
                              ./unwind/libunwind.a(Linit.o) (_ULx86_64_dwarf_find_proc_info)
./unwind/libunwind.a(setcontext.o)
                              ./unwind/libunwind.a(Lresume.o) (_Ux86_64_setcontext)
./unwind/libunwind.a(os-linux.o)
                              ./unwind/libunwind.a(elf64.o) (_Ux86_64_get_elf_image)
./unwind/libunwind.a(mempool.o)
                              ./unwind/libunwind.a(Lparser.o) (_UIx86_64__mempool_free)
./unwind/libunwind.a(Lfind_dynamic_proc_info.o)
                              ./unwind/libunwind.a(Lparser.o) (_ULx86_64_Ifind_dynamic_proc_info)
./unwind/libunwind.a(Lput_dynamic_unwind_info.o)
                              ./unwind/libunwind.a(Lparser.o) (_ULx86_64_Iput_dynamic_unwind_info)
./unwind/libunwind.a(Lexpr.o)
                              ./unwind/libunwind.a(Lparser.o) (_ULx86_64_dwarf_eval_expr)
./unwind/libunwind.a(Lfde.o)  ./unwind/libunwind.a(Lfind_proc_info-lsb.o) (_ULx86_64_dwarf_extract_proc_info_from_fde)
./unwind/libunwind.a(dyn-info-list.o)
                              ./unwind/libunwind.a(Lfind_dynamic_proc_info.o) (_U_dyn_info_list_addr)
./unwind/libunwind.a(Ldyn-extract.o)
                              ./unwind/libunwind.a(Lfind_dynamic_proc_info.o) (_ULx86_64_Iextract_dynamic_proc_info)
/usr/lib/x86_64-linux-gnu/libpthread_nonshared.a(pthread_atfork.oS)
                              ./tcmalloc/libtcmalloc.a(libtcmalloc_internal_la-static_vars.o) (pthread_atfork)
/usr/lib/x86_64-linux-gnu/libc_nonshared.a(elf-init.oS)
                              /usr/lib/gcc/x86_64-linux-gnu/4.6.1/../../../x86_64-linux-gnu/crt1.o (__libc_csu_init)

Allocating common symbols
Common symbol       size              file

_UIx86_64_full_mask
                    0x80              ./unwind/libunwind.a(init.o)
_U_dyn_info_list    0x10              ./unwind/libunwind.a(Linit.o)
dwarf_reg_state_pool
                    0x48              ./unwind/libunwind.a(global.o)
dwarf_cie_info_pool
                    0x48              ./unwind/libunwind.a(global.o)

Discarded input sections

 .note.GNU-stack
                0x0000000000000000        0x0 /usr/lib/gcc/x86_64-linux-gnu/4.6.1/../../../x86_64-linux-gnu/crt1.o
 .gnu_debuglink
                0x0000000000000000        0xc /usr/lib/gcc/x86_64-linux-gnu/4.6.1/../../../x86_64-linux-gnu/crt1.o
 .note.GNU-stack
                0x0000000000000000        0x0 /usr/lib/gcc/x86_64-linux-gnu/4.6.1/../../../x86_64-linux-gnu/crti.o
 .gnu_debuglink
                0x0000000000000000        0xc /usr/lib/gcc/x86_64-linux-gnu/4.6.1/../../../x86_64-linux-gnu/crti.o
 .note.GNU-stack
                0x0000000000000000        0x0 /usr/lib/gcc/x86_64-linux-gnu/4.6.1/crtbegin.o
 .group         0x0000000000000000        0x8 mpidriver.o
 .group         0x0000000000000000        0x8 mpidriver.o
 .group         0x0000000000000000        0x8 mpidriver.o
 .group         0x0000000000000000        0x8 mpidriver.o
 .group         0x0000000000000000        0x8 mpidriver.o
 .note.GNU-stack
                0x0000000000000000        0x0 mpidriver.o
 .note.GNU-stack
                0x0000000000000000        0x0 trace.o
 .group         0x0000000000000000        0x8 novoalignCSMPI.a(novoalignMPI_main.o)
 .group         0x0000000000000000        0x8 novoalignCSMPI.a(novoalignMPI_main.o)
 .group         0x0000000000000000        0x8 novoalignCSMPI.a(novoalignMPI_main.o)
 .group         0x0000000000000000        0x8 novoalignCSMPI.a(novoalignMPI_main.o)
 .group         0x0000000000000000        0x8 novoalignCSMPI.a(novoalignMPI_main.o)
 .group         0x0000000000000000        0x8 novoalignCSMPI.a(novoalignMPI_main.o)
 .group         0x0000000000000000        0x8 novoalignCSMPI.a(novoalignMPI_main.o)
 .group         0x0000000000000000        0x8 novoalignCSMPI.a(novoalignMPI_main.o)
 .group         0x0000000000000000        0x8 novoalignCSMPI.a(novoalignMPI_main.o)
 .group         0x0000000000000000        0x8 novoalignCSMPI.a(novoalignMPI_main.o)
 .group         0x0000000000000000        0x8 novoalignCSMPI.a(novoalignMPI_main.o)
 .group         0x0000000000000000        0x8 novoalignCSMPI.a(novoalignMPI_main.o)
 .group         0x0000000000000000        0x8 novoalignCSMPI.a(novoalignMPI_main.o)
 .group         0x0000000000000000        0x8 novoalignCSMPI.a(novoalignMPI_main.o)
 .group         0x0000000000000000        0x8 novoalignCSMPI.a(novoalignMPI_main.o)
 .note.GNU-stack
                0x0000000000000000        0x0 novoalignCSMPI.a(novoalignMPI_main.o)
 .group         0x0000000000000000        0x8 novoalignCSMPI.a(fragdist.o)
 .group         0x0000000000000000        0x8 novoalignCSMPI.a(fragdist.o)
 .group         0x0000000000000000        0x8 novoalignCSMPI.a(fragdist.o)
 .note.GNU-stack
                0x0000000000000000        0x0 novoalignCSMPI.a(fragdist.o)
 .note.GNU-stack
                0x0000000000000000        0x0 novoalignCSMPI.a(indelstats.o)
 .group         0x0000000000000000        0x8 novoalignCSMPI.a(ksgroups.o)
 .group         0x0000000000000000        0x8 novoalignCSMPI.a(ksgroups.o)
 .group         0x0000000000000000        0x8 novoalignCSMPI.a(ksgroups.o)
 .group         0x0000000000000000        0x8 novoalignCSMPI.a(ksgroups.o)
 .group         0x0000000000000000        0x8 novoalignCSMPI.a(ksgroups.o)
 .group         0x0000000000000000        0x8 novoalignCSMPI.a(ksgroups.o)
 .group         0x0000000000000000        0x8 novoalignCSMPI.a(ksgroups.o)
 .note.GNU-stack
                0x0000000000000000        0x0 novoalignCSMPI.a(ksgroups.o)
 .note.GNU-stack
                0x0000000000000000        0x0 novoalignCSMPI.a(ksindex.o)
 .group         0x0000000000000000        0x8 novoalignCSMPI.a(novoalignmpi.o)
 .group         0x0000000000000000        0x8 novoalignCSMPI.a(novoalignmpi.o)
 .group         0x0000000000000000        0x8 novoalignCSMPI.a(novoalignmpi.o)
 .group         0x0000000000000000        0x8 novoalignCSMPI.a(novoalignmpi.o)
 .group         0x0000000000000000        0x8 novoalignCSMPI.a(novoalignmpi.o)
 .group         0x0000000000000000        0x8 novoalignCSMPI.a(novoalignmpi.o)
 .group         0x0000000000000000        0x8 novoalignCSMPI.a(novoalignmpi.o)
 .group         0x0000000000000000        0x8 novoalignCSMPI.a(novoalignmpi.o)
 .group         0x0000000000000000        0xc novoalignCSMPI.a(novoalignmpi.o)
 .group         0x0000000000000000        0x8 novoalignCSMPI.a(novoalignmpi.o)
 .group         0x0000000000000000        0x8 novoalignCSMPI.a(novoalignmpi.o)
 .group         0x0000000000000000        0x8 novoalignCSMPI.a(novoalignmpi.o)
 .group         0x0000000000000000        0x8 novoalignCSMPI.a(novoalignmpi.o)
 .group         0x0000000000000000        0x8 novoalignCSMPI.a(novoalignmpi.o)
 .group         0x0000000000000000        0x8 novoalignCSMPI.a(novoalignmpi.o)
 .group         0x0000000000000000        0x8 novoalignCSMPI.a(novoalignmpi.o)
 .group         0x0000000000000000        0x8 novoalignCSMPI.a(novoalignmpi.o)
 .group         0x0000000000000000        0x8 novoalignCSMPI.a(novoalignmpi.o)
 .group         0x0000000000000000        0x8 novoalignCSMPI.a(novoalignmpi.o)
 .group         0x0000000000000000        0x8 novoalignCSMPI.a(novoalignmpi.o)
 .group         0x0000000000000000        0xc novoalignCSMPI.a(novoalignmpi.o)
 .group         0x0000000000000000        0x8 novoalignCSMPI.a(novoalignmpi.o)
 .group         0x0000000000000000        0x8 novoalignCSMPI.a(novoalignmpi.o)
 .group         0x0000000000000000        0x8 novoalignCSMPI.a(novoalignmpi.o)
 .group         0x0000000000000000        0x8 novoalignCSMPI.a(novoalignmpi.o)
 .group         0x0000000000000000        0x8 novoalignCSMPI.a(novoalignmpi.o)
 .group         0x0000000000000000        0x8 novoalignCSMPI.a(novoalignmpi.o)
 .group         0x0000000000000000        0x8 novoalignCSMPI.a(novoalignmpi.o)
 .group         0x0000000000000000        0x8 novoalignCSMPI.a(novoalignmpi.o)
 .group         0x0000000000000000        0x8 novoalignCSMPI.a(novoalignmpi.o)
 .note.GNU-stack
                0x0000000000000000        0x0 novoalignCSMPI.a(novoalignmpi.o)
 .note.GNU-stack
                0x0000000000000000        0x0 novoalignCSMPI.a(novolib.o)
 .group         0x0000000000000000        0x8 novoalignCSMPI.a(novoparam.o)
 .note.GNU-stack
                0x0000000000000000        0x0 novoalignCSMPI.a(novoparam.o)
 .note.GNU-stack
                0x0000000000000000        0x0 novoalignCSMPI.a(posteriorP.o)
 .note.GNU-stack
                0x0000000000000000        0x0 novoalignCSMPI.a(prbcalibrateCS.o)
 .note.GNU-stack
                0x0000000000000000        0x0 novoalignCSMPI.a(prbcalibrateMPI.o)
 .note.GNU-stack
                0x0000000000000000        0x0 novoalignCSMPI.a(qualconvert.o)
 .note.GNU-stack
                0x0000000000000000        0x0 novoalignCSMPI.a(queryfolder.o)
 .note.GNU-stack
                0x0000000000000000        0x0 novoalignCSMPI.a(queryformatCS.o)
 .note.GNU-stack
                0x0000000000000000        0x0 novoalignCSMPI.a(queryreader.o)
 .note.GNU-stack
                0x0000000000000000        0x0 novoalignCSMPI.a(queryreaderCS.o)
 .group         0x0000000000000000        0x8 novoalignCSMPI.a(reporter.o)
 .group         0x0000000000000000        0x8 novoalignCSMPI.a(reporter.o)
 .group         0x0000000000000000        0x8 novoalignCSMPI.a(reporter.o)
 .group         0x0000000000000000        0x8 novoalignCSMPI.a(reporter.o)
 .group         0x0000000000000000        0x8 novoalignCSMPI.a(reporter.o)
 .group         0x0000000000000000        0x8 novoalignCSMPI.a(reporter.o)
 .group         0x0000000000000000        0x8 novoalignCSMPI.a(reporter.o)
 .group         0x0000000000000000        0x8 novoalignCSMPI.a(reporter.o)
 .group         0x0000000000000000        0x8 novoalignCSMPI.a(reporter.o)
 .group         0x0000000000000000        0x8 novoalignCSMPI.a(reporter.o)
 .group         0x0000000000000000        0xc novoalignCSMPI.a(reporter.o)
 .group         0x0000000000000000        0x8 novoalignCSMPI.a(reporter.o)
 .group         0x0000000000000000        0x8 novoalignCSMPI.a(reporter.o)
 .group         0x0000000000000000        0x8 novoalignCSMPI.a(reporter.o)
 .text._ZN8reporter7newpairE6t_side
                0x0000000000000000       0x19 novoalignCSMPI.a(reporter.o)
 .text._ZN8reporter8filetypeEPKc
                0x0000000000000000       0x18 novoalignCSMPI.a(reporter.o)
 .text._ZN8reporter6dbinfoEv
                0x0000000000000000       0xa6 novoalignCSMPI.a(reporter.o)
 .text._ZN8reporter5startEiPPciiPKc
                0x0000000000000000      0x16c novoalignCSMPI.a(reporter.o)
 .text._ZN12alignmentrptD2Ev
                0x0000000000000000      0x2b9 novoalignCSMPI.a(reporter.o)
 .note.GNU-stack
                0x0000000000000000        0x0 novoalignCSMPI.a(reporter.o)
 .group         0x0000000000000000        0x8 novoalignCSMPI.a(rptNative.o)
 .group         0x0000000000000000        0x8 novoalignCSMPI.a(rptNative.o)
 .group         0x0000000000000000        0x8 novoalignCSMPI.a(rptNative.o)
 .group         0x0000000000000000        0x8 novoalignCSMPI.a(rptNative.o)
 .group         0x0000000000000000        0x8 novoalignCSMPI.a(rptNative.o)
 .group         0x0000000000000000        0x8 novoalignCSMPI.a(rptNative.o)
 .group         0x0000000000000000        0xc novoalignCSMPI.a(rptNative.o)
 .group         0x0000000000000000        0x8 novoalignCSMPI.a(rptNative.o)
 .group         0x0000000000000000        0x8 novoalignCSMPI.a(rptNative.o)
 .group         0x0000000000000000        0x8 novoalignCSMPI.a(rptNative.o)
 .group         0x0000000000000000        0x8 novoalignCSMPI.a(rptNative.o)
 .group         0x0000000000000000        0x8 novoalignCSMPI.a(rptNative.o)
 .group         0x0000000000000000        0x8 novoalignCSMPI.a(rptNative.o)
 .group         0x0000000000000000        0x8 novoalignCSMPI.a(rptNative.o)
 .text._ZN8reporter7newpairE6t_side
                0x0000000000000000       0x19 novoalignCSMPI.a(rptNative.o)
 .text._ZN8reporter8filetypeEPKc
                0x0000000000000000       0x18 novoalignCSMPI.a(rptNative.o)
 .text._ZN8reporter6dbinfoEv
                0x0000000000000000       0xa6 novoalignCSMPI.a(rptNative.o)
 .text._ZN8reporter5startEiPPciiPKc
                0x0000000000000000      0x16c novoalignCSMPI.a(rptNative.o)
 .text._ZN12alignmentrpt9sidealignD2Ev
                0x0000000000000000      0x176 novoalignCSMPI.a(rptNative.o)
 .text._ZN12alignmentrptD2Ev
                0x0000000000000000      0x2b9 novoalignCSMPI.a(rptNative.o)
 .text._ZN8reporter9rptprintfEPKcz
                0x0000000000000000       0xf6 novoalignCSMPI.a(rptNative.o)
 .note.GNU-stack
                0x0000000000000000        0x0 novoalignCSMPI.a(rptNative.o)
 .group         0x0000000000000000        0x8 novoalignCSMPI.a(rptSAM.o)
 .group         0x0000000000000000        0x8 novoalignCSMPI.a(rptSAM.o)
 .group         0x0000000000000000        0x8 novoalignCSMPI.a(rptSAM.o)
 .group         0x0000000000000000        0x8 novoalignCSMPI.a(rptSAM.o)
 .group         0x0000000000000000        0xc novoalignCSMPI.a(rptSAM.o)
 .group         0x0000000000000000        0x8 novoalignCSMPI.a(rptSAM.o)
 .group         0x0000000000000000        0x8 novoalignCSMPI.a(rptSAM.o)
 .group         0x0000000000000000        0x8 novoalignCSMPI.a(rptSAM.o)
 .group         0x0000000000000000        0x8 novoalignCSMPI.a(rptSAM.o)
 .group         0x0000000000000000        0x8 novoalignCSMPI.a(rptSAM.o)
 .group         0x0000000000000000        0x8 novoalignCSMPI.a(rptSAM.o)
 .group         0x0000000000000000        0x8 novoalignCSMPI.a(rptSAM.o)
 .group         0x0000000000000000        0x8 novoalignCSMPI.a(rptSAM.o)
 .text._ZN8reporter7newpairE6t_side
                0x0000000000000000       0x19 novoalignCSMPI.a(rptSAM.o)
 .text._ZN8reporter8filetypeEPKc
                0x0000000000000000       0x18 novoalignCSMPI.a(rptSAM.o)
 .text._ZN12alignmentrpt9sidealignD2Ev
                0x0000000000000000      0x176 novoalignCSMPI.a(rptSAM.o)
 .text._ZN12alignmentrptD2Ev
                0x0000000000000000      0x2b9 novoalignCSMPI.a(rptSAM.o)
 .text._ZN8reporter9rptprintfEPKcz
                0x0000000000000000       0xf6 novoalignCSMPI.a(rptSAM.o)
 .note.GNU-stack
                0x0000000000000000        0x0 novoalignCSMPI.a(rptSAM.o)
 .group         0x0000000000000000        0x8 novoalignCSMPI.a(TThread.o)
 .group         0x0000000000000000        0x8 novoalignCSMPI.a(TThread.o)
 .group         0x0000000000000000        0x8 novoalignCSMPI.a(TThread.o)
 .note.GNU-stack
                0x0000000000000000        0x0 novoalignCSMPI.a(TThread.o)
 .group         0x0000000000000000        0xc novoalignCSMPI.a(TThreadPool.o)
 .group         0x0000000000000000        0x8 novoalignCSMPI.a(TThreadPool.o)
 .group         0x0000000000000000        0x8 novoalignCSMPI.a(TThreadPool.o)
 .group         0x0000000000000000        0x8 novoalignCSMPI.a(TThreadPool.o)
 .group         0x0000000000000000        0x8 novoalignCSMPI.a(TThreadPool.o)
 .group         0x0000000000000000        0x8 novoalignCSMPI.a(TThreadPool.o)
 .group         0x0000000000000000        0x8 novoalignCSMPI.a(TThreadPool.o)
 .group         0x0000000000000000        0x8 novoalignCSMPI.a(TThreadPool.o)
 .group         0x0000000000000000        0x8 novoalignCSMPI.a(TThreadPool.o)
 .group         0x0000000000000000        0x8 novoalignCSMPI.a(TThreadPool.o)
 .note.GNU-stack
                0x0000000000000000        0x0 novoalignCSMPI.a(TThreadPool.o)
 .note.GNU-stack
                0x0000000000000000        0x0 novoalignCSMPI.a(TTimer.o)
 .group         0x0000000000000000        0x8 novoalignCSMPI.a(wmsearch.o)
 .group         0x0000000000000000        0x8 novoalignCSMPI.a(wmsearch.o)
 .group         0x0000000000000000        0x8 novoalignCSMPI.a(wmsearch.o)
 .group         0x0000000000000000        0x8 novoalignCSMPI.a(wmsearch.o)
 .group         0x0000000000000000        0x8 novoalignCSMPI.a(wmsearch.o)
 .group         0x0000000000000000        0x8 novoalignCSMPI.a(wmsearch.o)
 .group         0x0000000000000000        0x8 novoalignCSMPI.a(wmsearch.o)
 .group         0x0000000000000000        0x8 novoalignCSMPI.a(wmsearch.o)
 .group         0x0000000000000000        0x8 novoalignCSMPI.a(wmsearch.o)
 .group         0x0000000000000000        0x8 novoalignCSMPI.a(wmsearch.o)
 .group         0x0000000000000000        0x8 novoalignCSMPI.a(wmsearch.o)
 .group         0x0000000000000000        0x8 novoalignCSMPI.a(wmsearch.o)
 .group         0x0000000000000000        0x8 novoalignCSMPI.a(wmsearch.o)
 .group         0x0000000000000000        0x8 novoalignCSMPI.a(wmsearch.o)
 .group         0x0000000000000000        0x8 novoalignCSMPI.a(wmsearch.o)
 .group         0x0000000000000000        0x8 novoalignCSMPI.a(wmsearch.o)
 .group         0x0000000000000000        0x8 novoalignCSMPI.a(wmsearch.o)
 .group         0x0000000000000000        0x8 novoalignCSMPI.a(wmsearch.o)
 .group         0x0000000000000000        0x8 novoalignCSMPI.a(wmsearch.o)
 .group         0x0000000000000000        0x8 novoalignCSMPI.a(wmsearch.o)
 .group         0x0000000000000000        0x8 novoalignCSMPI.a(wmsearch.o)
 .group         0x0000000000000000        0x8 novoalignCSMPI.a(wmsearch.o)
 .group         0x0000000000000000        0x8 novoalignCSMPI.a(wmsearch.o)
 .group         0x0000000000000000        0x8 novoalignCSMPI.a(wmsearch.o)
 .group         0x0000000000000000        0x8 novoalignCSMPI.a(wmsearch.o)
 .group         0x0000000000000000        0x8 novoalignCSMPI.a(wmsearch.o)
 .group         0x0000000000000000        0x8 novoalignCSMPI.a(wmsearch.o)
 .group         0x0000000000000000        0x8 novoalignCSMPI.a(wmsearch.o)
 .group         0x0000000000000000        0x8 novoalignCSMPI.a(wmsearch.o)
 .group         0x0000000000000000        0x8 novoalignCSMPI.a(wmsearch.o)
 .group         0x0000000000000000        0x8 novoalignCSMPI.a(wmsearch.o)
 .group         0x0000000000000000        0x8 novoalignCSMPI.a(wmsearch.o)
 .group         0x0000000000000000        0x8 novoalignCSMPI.a(wmsearch.o)
 .group         0x0000000000000000        0x8 novoalignCSMPI.a(wmsearch.o)
 .group         0x0000000000000000        0x8 novoalignCSMPI.a(wmsearch.o)
 .group         0x0000000000000000        0x8 novoalignCSMPI.a(wmsearch.o)
 .group         0x0000000000000000        0x8 novoalignCSMPI.a(wmsearch.o)
 .group         0x0000000000000000        0x8 novoalignCSMPI.a(wmsearch.o)
 .group         0x0000000000000000        0x8 novoalignCSMPI.a(wmsearch.o)
 .text._ZN12alignmentrpt9sidealignD2Ev
                0x0000000000000000      0x176 novoalignCSMPI.a(wmsearch.o)
 .text._ZN12alignmentrptD2Ev
                0x0000000000000000      0x2b9 novoalignCSMPI.a(wmsearch.o)
 .text._ZNSt8_Rb_treeIllSt9_IdentityIlESt4lessIlESaIlEE8_M_eraseEPSt13_Rb_tree_nodeIlE
                0x0000000000000000      0x1bc novoalignCSMPI.a(wmsearch.o)
 .text._ZNSt8_Rb_treeI13simdalignmentS0_St9_IdentityIS0_ESt4lessIS0_ESaIS0_EE8_M_eraseEPSt13_Rb_tree_nodeIS0_E
                0x0000000000000000      0x1bc novoalignCSMPI.a(wmsearch.o)
 .note.GNU-stack
                0x0000000000000000        0x0 novoalignCSMPI.a(wmsearch.o)
 .note.GNU-stack
                0x0000000000000000        0x0 novoalignCSMPI.a(linkdate.o)
 .note.GNU-stack
                0x0000000000000000        0x0 novoalignCSMPI.a(filehandle.o)
 .note.GNU-stack
                0x0000000000000000        0x0 novoalignCSMPI.a(findamateCS.o)
 .note.GNU-stack
                0x0000000000000000        0x0 novoalignCSMPI.a(fragdistMPI.o)
 .note.GNU-stack
                0x0000000000000000        0x0 novoalignCSMPI.a(iubcodes.o)
 .group         0x0000000000000000        0x8 novoalignCSMPI.a(keygenCS.o)
 .note.GNU-stack
                0x0000000000000000        0x0 novoalignCSMPI.a(keygenCS.o)
 .group         0x0000000000000000        0x8 novoalignCSMPI.a(license.o)
 .rodata._ZZN7license10setdefaultEvE15default_license
                0x0000000000000000       0x43 novoalignCSMPI.a(license.o)
 .note.GNU-stack
                0x0000000000000000        0x0 novoalignCSMPI.a(license.o)
 .group         0x0000000000000000        0x8 novoalignCSMPI.a(nawmCS.o)
 .data._ZZN7ksindex1fENS_5indexEjjE2mm
                0x0000000000000000       0x40 novoalignCSMPI.a(nawmCS.o)
 .note.GNU-stack
                0x0000000000000000        0x0 novoalignCSMPI.a(nawmCS.o)
 .note.GNU-stack
                0x0000000000000000        0x0 novoalignCSMPI.a(needleCS.o)
 .note.GNU-stack
                0x0000000000000000        0x0 novoalignCSMPI.a(qryopt.o)
 .note.GNU-stack
                0x0000000000000000        0x0 novoalignCSMPI.a(shortnwCS.o)
 .note.GNU-stack
                0x0000000000000000        0x0 novoalignCSMPI.a(cscodes.o)
 .group         0x0000000000000000        0x8 ./tcmalloc/libtcmalloc.a(libtcmalloc_la-tcmalloc.o)
 .group         0x0000000000000000        0x8 ./tcmalloc/libtcmalloc.a(libtcmalloc_la-tcmalloc.o)
 .group         0x0000000000000000        0xc ./tcmalloc/libtcmalloc.a(libtcmalloc_la-tcmalloc.o)
 .group         0x0000000000000000        0x8 ./tcmalloc/libtcmalloc.a(libtcmalloc_la-tcmalloc.o)
 .group         0x0000000000000000        0x8 ./tcmalloc/libtcmalloc.a(libtcmalloc_la-tcmalloc.o)
 .group         0x0000000000000000        0x8 ./tcmalloc/libtcmalloc.a(libtcmalloc_la-tcmalloc.o)
 .group         0x0000000000000000        0x8 ./tcmalloc/libtcmalloc.a(libtcmalloc_la-tcmalloc.o)
 .group         0x0000000000000000        0x8 ./tcmalloc/libtcmalloc.a(libtcmalloc_la-tcmalloc.o)
 .group         0x0000000000000000        0x8 ./tcmalloc/libtcmalloc.a(libtcmalloc_la-tcmalloc.o)
 .group         0x0000000000000000        0x8 ./tcmalloc/libtcmalloc.a(libtcmalloc_la-tcmalloc.o)
 .group         0x0000000000000000        0x8 ./tcmalloc/libtcmalloc.a(libtcmalloc_la-tcmalloc.o)
 .group         0x0000000000000000        0x8 ./tcmalloc/libtcmalloc.a(libtcmalloc_la-tcmalloc.o)
 .group         0x0000000000000000        0x8 ./tcmalloc/libtcmalloc.a(libtcmalloc_la-tcmalloc.o)
 .group         0x0000000000000000        0x8 ./tcmalloc/libtcmalloc.a(libtcmalloc_la-tcmalloc.o)
 .group         0x0000000000000000        0x8 ./tcmalloc/libtcmalloc.a(libtcmalloc_la-tcmalloc.o)
 .group         0x0000000000000000        0x8 ./tcmalloc/libtcmalloc.a(libtcmalloc_la-tcmalloc.o)
 .group         0x0000000000000000        0x8 ./tcmalloc/libtcmalloc.a(libtcmalloc_la-tcmalloc.o)
 .group         0x0000000000000000        0x8 ./tcmalloc/libtcmalloc.a(libtcmalloc_la-tcmalloc.o)
 .group         0x0000000000000000        0x8 ./tcmalloc/libtcmalloc.a(libtcmalloc_la-tcmalloc.o)
 .group         0x0000000000000000        0x8 ./tcmalloc/libtcmalloc.a(libtcmalloc_la-tcmalloc.o)
 .group         0x0000000000000000        0x8 ./tcmalloc/libtcmalloc.a(libtcmalloc_la-tcmalloc.o)
 .group         0x0000000000000000        0x8 ./tcmalloc/libtcmalloc.a(libtcmalloc_la-tcmalloc.o)
 .group         0x0000000000000000        0x8 ./tcmalloc/libtcmalloc.a(libtcmalloc_la-tcmalloc.o)
 .group         0x0000000000000000        0x8 ./tcmalloc/libtcmalloc.a(libtcmalloc_la-tcmalloc.o)
 .group         0x0000000000000000        0x8 ./tcmalloc/libtcmalloc.a(libtcmalloc_la-tcmalloc.o)
 .group         0x0000000000000000        0x8 ./tcmalloc/libtcmalloc.a(libtcmalloc_la-tcmalloc.o)
 .group         0x0000000000000000        0x8 ./tcmalloc/libtcmalloc.a(libtcmalloc_la-tcmalloc.o)
 .group         0x0000000000000000        0x8 ./tcmalloc/libtcmalloc.a(libtcmalloc_la-tcmalloc.o)
 .group         0x0000000000000000        0x8 ./tcmalloc/libtcmalloc.a(libtcmalloc_la-tcmalloc.o)
 .group         0x0000000000000000        0x8 ./tcmalloc/libtcmalloc.a(libtcmalloc_la-tcmalloc.o)
 .group         0x0000000000000000        0x8 ./tcmalloc/libtcmalloc.a(libtcmalloc_la-tcmalloc.o)
 .note.GNU-stack
                0x0000000000000000        0x0 ./tcmalloc/libtcmalloc.a(libtcmalloc_la-tcmalloc.o)
 .group         0x0000000000000000        0x8 ./tcmalloc/libtcmalloc.a(atomicops-internals-x86.o)
 .group         0x0000000000000000        0x8 ./tcmalloc/libtcmalloc.a(atomicops-internals-x86.o)
 .group         0x0000000000000000        0x8 ./tcmalloc/libtcmalloc.a(atomicops-internals-x86.o)
 .note.GNU-stack
                0x0000000000000000        0x0 ./tcmalloc/libtcmalloc.a(atomicops-internals-x86.o)
 .note.GNU-stack
                0x0000000000000000        0x0 ./tcmalloc/libtcmalloc.a(dynamic_annotations.o)
 .note.GNU-stack
                0x0000000000000000        0x0 ./tcmalloc/libtcmalloc.a(libtcmalloc_internal_la-central_freelist.o)
 .note.GNU-stack
                0x0000000000000000        0x0 ./tcmalloc/libtcmalloc.a(libtcmalloc_internal_la-common.o)
 .note.GNU-stack
                0x0000000000000000        0x0 ./tcmalloc/libtcmalloc.a(libtcmalloc_internal_la-internal_logging.o)
 .group         0x0000000000000000        0x8 ./tcmalloc/libtcmalloc.a(libtcmalloc_internal_la-malloc_extension.o)
 .group         0x0000000000000000        0x8 ./tcmalloc/libtcmalloc.a(libtcmalloc_internal_la-malloc_extension.o)
 .group         0x0000000000000000        0x8 ./tcmalloc/libtcmalloc.a(libtcmalloc_internal_la-malloc_extension.o)
 .group         0x0000000000000000        0x8 ./tcmalloc/libtcmalloc.a(libtcmalloc_internal_la-malloc_extension.o)
 .group         0x0000000000000000        0x8 ./tcmalloc/libtcmalloc.a(libtcmalloc_internal_la-malloc_extension.o)
 .group         0x0000000000000000        0x8 ./tcmalloc/libtcmalloc.a(libtcmalloc_internal_la-malloc_extension.o)
 .note.GNU-stack
                0x0000000000000000        0x0 ./tcmalloc/libtcmalloc.a(libtcmalloc_internal_la-malloc_extension.o)
 .group         0x0000000000000000        0x8 ./tcmalloc/libtcmalloc.a(libtcmalloc_internal_la-malloc_hook.o)
 .group         0x0000000000000000        0x8 ./tcmalloc/libtcmalloc.a(libtcmalloc_internal_la-malloc_hook.o)
 .group         0x0000000000000000        0x8 ./tcmalloc/libtcmalloc.a(libtcmalloc_internal_la-malloc_hook.o)
 .group         0x0000000000000000        0x8 ./tcmalloc/libtcmalloc.a(libtcmalloc_internal_la-malloc_hook.o)
 .group         0x0000000000000000        0x8 ./tcmalloc/libtcmalloc.a(libtcmalloc_internal_la-malloc_hook.o)
 .group         0x0000000000000000        0x8 ./tcmalloc/libtcmalloc.a(libtcmalloc_internal_la-malloc_hook.o)
 .group         0x0000000000000000        0x8 ./tcmalloc/libtcmalloc.a(libtcmalloc_internal_la-malloc_hook.o)
 .text._Z9LogPrintfiPKcP13__va_list_tag
                0x0000000000000000      0x139 ./tcmalloc/libtcmalloc.a(libtcmalloc_internal_la-malloc_hook.o)
 .text._Z8RAW_VLOGiPKcz
                0x0000000000000000       0x9a ./tcmalloc/libtcmalloc.a(libtcmalloc_internal_la-malloc_hook.o)
 .note.GNU-stack
                0x0000000000000000        0x0 ./tcmalloc/libtcmalloc.a(libtcmalloc_internal_la-malloc_hook.o)
 .note.GNU-stack
                0x0000000000000000        0x0 ./tcmalloc/libtcmalloc.a(libtcmalloc_internal_la-maybe_threads.o)
 .note.GNU-stack
                0x0000000000000000        0x0 ./tcmalloc/libtcmalloc.a(libtcmalloc_internal_la-page_heap.o)
 .note.GNU-stack
                0x0000000000000000        0x0 ./tcmalloc/libtcmalloc.a(libtcmalloc_internal_la-sampler.o)
 .note.GNU-stack
                0x0000000000000000        0x0 ./tcmalloc/libtcmalloc.a(libtcmalloc_internal_la-span.o)
 .note.GNU-stack
                0x0000000000000000        0x0 ./tcmalloc/libtcmalloc.a(libtcmalloc_internal_la-stack_trace_table.o)
 .group         0x0000000000000000        0x8 ./tcmalloc/libtcmalloc.a(libtcmalloc_internal_la-static_vars.o)
 .group         0x0000000000000000        0x8 ./tcmalloc/libtcmalloc.a(libtcmalloc_internal_la-static_vars.o)
 .group         0x0000000000000000        0x8 ./tcmalloc/libtcmalloc.a(libtcmalloc_internal_la-static_vars.o)
 .text._Z9LogPrintfiPKcP13__va_list_tag
                0x0000000000000000      0x139 ./tcmalloc/libtcmalloc.a(libtcmalloc_internal_la-static_vars.o)
 .text._Z8RAW_VLOGiPKcz
                0x0000000000000000       0x9a ./tcmalloc/libtcmalloc.a(libtcmalloc_internal_la-static_vars.o)
 .text._ZN17GoogleInitializerD2Ev
                0x0000000000000000       0x32 ./tcmalloc/libtcmalloc.a(libtcmalloc_internal_la-static_vars.o)
 .note.GNU-stack
                0x0000000000000000        0x0 ./tcmalloc/libtcmalloc.a(libtcmalloc_internal_la-static_vars.o)
 .group         0x0000000000000000        0xc ./tcmalloc/libtcmalloc.a(libtcmalloc_internal_la-system-alloc.o)
 .group         0x0000000000000000        0xc ./tcmalloc/libtcmalloc.a(libtcmalloc_internal_la-system-alloc.o)
 .group         0x0000000000000000        0xc ./tcmalloc/libtcmalloc.a(libtcmalloc_internal_la-system-alloc.o)
 .group         0x0000000000000000        0xc ./tcmalloc/libtcmalloc.a(libtcmalloc_internal_la-system-alloc.o)
 .group         0x0000000000000000        0x8 ./tcmalloc/libtcmalloc.a(libtcmalloc_internal_la-system-alloc.o)
 .group         0x0000000000000000        0x8 ./tcmalloc/libtcmalloc.a(libtcmalloc_internal_la-system-alloc.o)
 .group         0x0000000000000000        0x8 ./tcmalloc/libtcmalloc.a(libtcmalloc_internal_la-system-alloc.o)
 .group         0x0000000000000000        0x8 ./tcmalloc/libtcmalloc.a(libtcmalloc_internal_la-system-alloc.o)
 .group         0x0000000000000000        0x8 ./tcmalloc/libtcmalloc.a(libtcmalloc_internal_la-system-alloc.o)
 .group         0x0000000000000000        0x8 ./tcmalloc/libtcmalloc.a(libtcmalloc_internal_la-system-alloc.o)
 .group         0x0000000000000000        0x8 ./tcmalloc/libtcmalloc.a(libtcmalloc_internal_la-system-alloc.o)
 .group         0x0000000000000000        0x8 ./tcmalloc/libtcmalloc.a(libtcmalloc_internal_la-system-alloc.o)
 .group         0x0000000000000000        0x8 ./tcmalloc/libtcmalloc.a(libtcmalloc_internal_la-system-alloc.o)
 .group         0x0000000000000000        0x8 ./tcmalloc/libtcmalloc.a(libtcmalloc_internal_la-system-alloc.o)
 .group         0x0000000000000000        0x8 ./tcmalloc/libtcmalloc.a(libtcmalloc_internal_la-system-alloc.o)
 .group         0x0000000000000000        0x8 ./tcmalloc/libtcmalloc.a(libtcmalloc_internal_la-system-alloc.o)
 .note.GNU-stack
                0x0000000000000000        0x0 ./tcmalloc/libtcmalloc.a(libtcmalloc_internal_la-system-alloc.o)
 .note.GNU-stack
                0x0000000000000000        0x0 ./tcmalloc/libtcmalloc.a(libtcmalloc_internal_la-thread_cache.o)
 .note.GNU-stack
                0x0000000000000000        0x0 ./tcmalloc/libtcmalloc.a(logging.o)
 .note.GNU-stack
                0x0000000000000000        0x0 ./tcmalloc/libtcmalloc.a(spinlock.o)
 .note.GNU-stack
                0x0000000000000000        0x0 ./tcmalloc/libtcmalloc.a(spinlock_internal.o)
 .note.GNU-stack
                0x0000000000000000        0x0 ./tcmalloc/libtcmalloc.a(stacktrace.o)
 .group         0x0000000000000000        0x8 ./tcmalloc/libtcmalloc.a(sysinfo.o)
 .group         0x0000000000000000        0x8 ./tcmalloc/libtcmalloc.a(sysinfo.o)
 .group         0x0000000000000000        0x8 ./tcmalloc/libtcmalloc.a(sysinfo.o)
 .text._Z9LogPrintfiPKcP13__va_list_tag
                0x0000000000000000      0x164 ./tcmalloc/libtcmalloc.a(sysinfo.o)
 .text._Z8RAW_VLOGiPKcz
                0x0000000000000000       0x9a ./tcmalloc/libtcmalloc.a(sysinfo.o)
 .note.GNU-stack
                0x0000000000000000        0x0 ./tcmalloc/libtcmalloc.a(sysinfo.o)
 .group         0x0000000000000000        0x8 ./tcmalloc/libtcmalloc.a(libtcmalloc_la-heap-checker.o)
 .group         0x0000000000000000        0x8 ./tcmalloc/libtcmalloc.a(libtcmalloc_la-heap-checker.o)
 .group         0x0000000000000000        0x8 ./tcmalloc/libtcmalloc.a(libtcmalloc_la-heap-checker.o)
 .group         0x0000000000000000        0x8 ./tcmalloc/libtcmalloc.a(libtcmalloc_la-heap-checker.o)
 .group         0x0000000000000000        0x8 ./tcmalloc/libtcmalloc.a(libtcmalloc_la-heap-checker.o)
 .group         0x0000000000000000        0x8 ./tcmalloc/libtcmalloc.a(libtcmalloc_la-heap-checker.o)
 .group         0x0000000000000000        0x8 ./tcmalloc/libtcmalloc.a(libtcmalloc_la-heap-checker.o)
 .group         0x0000000000000000        0x8 ./tcmalloc/libtcmalloc.a(libtcmalloc_la-heap-checker.o)
 .group         0x0000000000000000        0x8 ./tcmalloc/libtcmalloc.a(libtcmalloc_la-heap-checker.o)
 .group         0x0000000000000000        0x8 ./tcmalloc/libtcmalloc.a(libtcmalloc_la-heap-checker.o)
 .group         0x0000000000000000        0x8 ./tcmalloc/libtcmalloc.a(libtcmalloc_la-heap-checker.o)
 .group         0x0000000000000000        0x8 ./tcmalloc/libtcmalloc.a(libtcmalloc_la-heap-checker.o)
 .group         0x0000000000000000        0x8 ./tcmalloc/libtcmalloc.a(libtcmalloc_la-heap-checker.o)
 .group         0x0000000000000000        0x8 ./tcmalloc/libtcmalloc.a(libtcmalloc_la-heap-checker.o)
 .group         0x0000000000000000        0x8 ./tcmalloc/libtcmalloc.a(libtcmalloc_la-heap-checker.o)
 .group         0x0000000000000000        0x8 ./tcmalloc/libtcmalloc.a(libtcmalloc_la-heap-checker.o)
 .group         0x0000000000000000        0x8 ./tcmalloc/libtcmalloc.a(libtcmalloc_la-heap-checker.o)
 .group         0x0000000000000000        0x8 ./tcmalloc/libtcmalloc.a(libtcmalloc_la-heap-checker.o)
 .group         0x0000000000000000        0x8 ./tcmalloc/libtcmalloc.a(libtcmalloc_la-heap-checker.o)
 .group         0x0000000000000000        0x8 ./tcmalloc/libtcmalloc.a(libtcmalloc_la-heap-checker.o)
 .group         0x0000000000000000        0x8 ./tcmalloc/libtcmalloc.a(libtcmalloc_la-heap-checker.o)
 .group         0x0000000000000000        0x8 ./tcmalloc/libtcmalloc.a(libtcmalloc_la-heap-checker.o)
 .group         0x0000000000000000        0x8 ./tcmalloc/libtcmalloc.a(libtcmalloc_la-heap-checker.o)
 .group         0x0000000000000000        0x8 ./tcmalloc/libtcmalloc.a(libtcmalloc_la-heap-checker.o)
 .group         0x0000000000000000        0x8 ./tcmalloc/libtcmalloc.a(libtcmalloc_la-heap-checker.o)
 .group         0x0000000000000000        0x8 ./tcmalloc/libtcmalloc.a(libtcmalloc_la-heap-checker.o)
 .group         0x0000000000000000        0x8 ./tcmalloc/libtcmalloc.a(libtcmalloc_la-heap-checker.o)
 .text._Z9LogPrintfiPKcP13__va_list_tag
                0x0000000000000000      0x137 ./tcmalloc/libtcmalloc.a(libtcmalloc_la-heap-checker.o)
 .text._Z7RAW_LOGiPKcz
                0x0000000000000000       0x97 ./tcmalloc/libtcmalloc.a(libtcmalloc_la-heap-checker.o)
 .text._Z8RAW_VLOGiPKcz
                0x0000000000000000       0x97 ./tcmalloc/libtcmalloc.a(libtcmalloc_la-heap-checker.o)
 .text._ZN17GoogleInitializerD2Ev
                0x0000000000000000       0x2a ./tcmalloc/libtcmalloc.a(libtcmalloc_la-heap-checker.o)
 .note.GNU-stack
                0x0000000000000000        0x0 ./tcmalloc/libtcmalloc.a(libtcmalloc_la-heap-checker.o)
 .group         0x0000000000000000        0x8 ./tcmalloc/libtcmalloc.a(libtcmalloc_la-heap-checker-bcad.o)
 .note.GNU-stack
                0x0000000000000000        0x0 ./tcmalloc/libtcmalloc.a(libtcmalloc_la-heap-checker-bcad.o)
 .group         0x0000000000000000        0x8 ./tcmalloc/libtcmalloc.a(libtcmalloc_internal_la-heap-profile-table.o)
 .group         0x0000000000000000        0x8 ./tcmalloc/libtcmalloc.a(libtcmalloc_internal_la-heap-profile-table.o)
 .group         0x0000000000000000        0x8 ./tcmalloc/libtcmalloc.a(libtcmalloc_internal_la-heap-profile-table.o)
 .group         0x0000000000000000        0x8 ./tcmalloc/libtcmalloc.a(libtcmalloc_internal_la-heap-profile-table.o)
 .group         0x0000000000000000        0x8 ./tcmalloc/libtcmalloc.a(libtcmalloc_internal_la-heap-profile-table.o)
 .group         0x0000000000000000        0x8 ./tcmalloc/libtcmalloc.a(libtcmalloc_internal_la-heap-profile-table.o)
 .group         0x0000000000000000        0x8 ./tcmalloc/libtcmalloc.a(libtcmalloc_internal_la-heap-profile-table.o)
 .group         0x0000000000000000        0x8 ./tcmalloc/libtcmalloc.a(libtcmalloc_internal_la-heap-profile-table.o)
 .group         0x0000000000000000        0x8 ./tcmalloc/libtcmalloc.a(libtcmalloc_internal_la-heap-profile-table.o)
 .group         0x0000000000000000        0x8 ./tcmalloc/libtcmalloc.a(libtcmalloc_internal_la-heap-profile-table.o)
 .group         0x0000000000000000        0x8 ./tcmalloc/libtcmalloc.a(libtcmalloc_internal_la-heap-profile-table.o)
 .group         0x0000000000000000        0x8 ./tcmalloc/libtcmalloc.a(libtcmalloc_internal_la-heap-profile-table.o)
 .group         0x0000000000000000        0x8 ./tcmalloc/libtcmalloc.a(libtcmalloc_internal_la-heap-profile-table.o)
 .group         0x0000000000000000        0x8 ./tcmalloc/libtcmalloc.a(libtcmalloc_internal_la-heap-profile-table.o)
 .group         0x0000000000000000        0x8 ./tcmalloc/libtcmalloc.a(libtcmalloc_internal_la-heap-profile-table.o)
 .group         0x0000000000000000        0x8 ./tcmalloc/libtcmalloc.a(libtcmalloc_internal_la-heap-profile-table.o)
 .group         0x0000000000000000        0x8 ./tcmalloc/libtcmalloc.a(libtcmalloc_internal_la-heap-profile-table.o)
 .group         0x0000000000000000        0x8 ./tcmalloc/libtcmalloc.a(libtcmalloc_internal_la-heap-profile-table.o)
 .group         0x0000000000000000        0x8 ./tcmalloc/libtcmalloc.a(libtcmalloc_internal_la-heap-profile-table.o)
 .group         0x0000000000000000        0x8 ./tcmalloc/libtcmalloc.a(libtcmalloc_internal_la-heap-profile-table.o)
 .group         0x0000000000000000        0x8 ./tcmalloc/libtcmalloc.a(libtcmalloc_internal_la-heap-profile-table.o)
 .text._Z9LogPrintfiPKcP13__va_list_tag
                0x0000000000000000      0x139 ./tcmalloc/libtcmalloc.a(libtcmalloc_internal_la-heap-profile-table.o)
 .text._Z7RAW_LOGiPKcz
                0x0000000000000000       0x9a ./tcmalloc/libtcmalloc.a(libtcmalloc_internal_la-heap-profile-table.o)
 .text._Z8RAW_VLOGiPKcz
                0x0000000000000000       0x9a ./tcmalloc/libtcmalloc.a(libtcmalloc_internal_la-heap-profile-table.o)
 .note.GNU-stack
                0x0000000000000000        0x0 ./tcmalloc/libtcmalloc.a(libtcmalloc_internal_la-heap-profile-table.o)
 .note.GNU-stack
                0x0000000000000000        0x0 ./tcmalloc/libtcmalloc.a(libtcmalloc_internal_la-low_level_alloc.o)
 .group         0x0000000000000000        0x8 ./tcmalloc/libtcmalloc.a(libtcmalloc_internal_la-memory_region_map.o)
 .group         0x0000000000000000        0x8 ./tcmalloc/libtcmalloc.a(libtcmalloc_internal_la-memory_region_map.o)
 .group         0x0000000000000000        0x8 ./tcmalloc/libtcmalloc.a(libtcmalloc_internal_la-memory_region_map.o)
 .group         0x0000000000000000        0x8 ./tcmalloc/libtcmalloc.a(libtcmalloc_internal_la-memory_region_map.o)
 .group         0x0000000000000000        0x8 ./tcmalloc/libtcmalloc.a(libtcmalloc_internal_la-memory_region_map.o)
 .group         0x0000000000000000        0x8 ./tcmalloc/libtcmalloc.a(libtcmalloc_internal_la-memory_region_map.o)
 .group         0x0000000000000000        0x8 ./tcmalloc/libtcmalloc.a(libtcmalloc_internal_la-memory_region_map.o)
 .group         0x0000000000000000        0x8 ./tcmalloc/libtcmalloc.a(libtcmalloc_internal_la-memory_region_map.o)
 .group         0x0000000000000000        0x8 ./tcmalloc/libtcmalloc.a(libtcmalloc_internal_la-memory_region_map.o)
 .text._Z9LogPrintfiPKcP13__va_list_tag
                0x0000000000000000      0x139 ./tcmalloc/libtcmalloc.a(libtcmalloc_internal_la-memory_region_map.o)
 .text._Z7RAW_LOGiPKcz
                0x0000000000000000       0x9a ./tcmalloc/libtcmalloc.a(libtcmalloc_internal_la-memory_region_map.o)
 .text._Z8RAW_VLOGiPKcz
                0x0000000000000000       0x9a ./tcmalloc/libtcmalloc.a(libtcmalloc_internal_la-memory_region_map.o)
 .note.GNU-stack
                0x0000000000000000        0x0 ./tcmalloc/libtcmalloc.a(libtcmalloc_internal_la-memory_region_map.o)
 .note.GNU-stack
                0x0000000000000000        0x0 ./tcmalloc/libtcmalloc.a(libtcmalloc_internal_la-raw_printer.o)
 .group         0x0000000000000000        0x8 ./tcmalloc/libtcmalloc.a(libtcmalloc_internal_la-symbolize.o)
 .group         0x0000000000000000        0x8 ./tcmalloc/libtcmalloc.a(libtcmalloc_internal_la-symbolize.o)
 .group         0x0000000000000000        0x8 ./tcmalloc/libtcmalloc.a(libtcmalloc_internal_la-symbolize.o)
 .group         0x0000000000000000        0x8 ./tcmalloc/libtcmalloc.a(libtcmalloc_internal_la-symbolize.o)
 .group         0x0000000000000000        0x8 ./tcmalloc/libtcmalloc.a(libtcmalloc_internal_la-symbolize.o)
 .text._Z9LogPrintfiPKcP13__va_list_tag
                0x0000000000000000      0x139 ./tcmalloc/libtcmalloc.a(libtcmalloc_internal_la-symbolize.o)
 .text._Z7RAW_LOGiPKcz
                0x0000000000000000       0x9a ./tcmalloc/libtcmalloc.a(libtcmalloc_internal_la-symbolize.o)
 .note.GNU-stack
                0x0000000000000000        0x0 ./tcmalloc/libtcmalloc.a(libtcmalloc_internal_la-symbolize.o)
 .note.GNU-stack
                0x0000000000000000        0x0 ./tcmalloc/libtcmalloc.a(libtcmalloc_la-linuxthreads.o)
 .note.GNU-stack
                0x0000000000000000        0x0 ./unwind/libunwind.a(backtrace.o)
 .note.GNU-stack
                0x0000000000000000        0x0 ./unwind/libunwind.a(Lget_reg.o)
 .note.GNU-stack
                0x0000000000000000        0x0 ./unwind/libunwind.a(Linit_local.o)
 .note.GNU-stack
                0x0000000000000000        0x0 ./unwind/libunwind.a(Lregs.o)
 .note.GNU-stack
                0x0000000000000000        0x0 ./unwind/libunwind.a(lt1-Lstep.o)
 .note.GNU-stack
                0x0000000000000000        0x0 ./unwind/libunwind.a(getcontext.o)
 .note.GNU-stack
                0x0000000000000000        0x0 ./unwind/libunwind.a(Lstep.o)
 .note.GNU-stack
                0x0000000000000000        0x0 ./unwind/libunwind.a(Lglobal.o)
 .note.GNU-stack
                0x0000000000000000        0x0 ./unwind/libunwind.a(Linit.o)
 .note.GNU-stack
                0x0000000000000000        0x0 ./unwind/libunwind.a(Lis_signal_frame.o)
 .note.GNU-stack
                0x0000000000000000        0x0 ./unwind/libunwind.a(Lresume.o)
 .note.GNU-stack
                0x0000000000000000        0x0 ./unwind/libunwind.a(init.o)
 .note.GNU-stack
                0x0000000000000000        0x0 ./unwind/libunwind.a(flush_cache.o)
 .note.GNU-stack
                0x0000000000000000        0x0 ./unwind/libunwind.a(global.o)
 .note.GNU-stack
                0x0000000000000000        0x0 ./unwind/libunwind.a(elf64.o)
 .note.GNU-stack
                0x0000000000000000        0x0 ./unwind/libunwind.a(is_fpreg.o)
 .note.GNU-stack
                0x0000000000000000        0x0 ./unwind/libunwind.a(Lget_accessors.o)
 .note.GNU-stack
                0x0000000000000000        0x0 ./unwind/libunwind.a(Lparser.o)
 .note.GNU-stack
                0x0000000000000000        0x0 ./unwind/libunwind.a(Lpe.o)
 .note.GNU-stack
                0x0000000000000000        0x0 ./unwind/libunwind.a(Lfind_proc_info-lsb.o)
 .note.GNU-stack
                0x0000000000000000        0x0 ./unwind/libunwind.a(setcontext.o)
 .note.GNU-stack
                0x0000000000000000        0x0 ./unwind/libunwind.a(os-linux.o)
 .note.GNU-stack
                0x0000000000000000        0x0 ./unwind/libunwind.a(mempool.o)
 .note.GNU-stack
                0x0000000000000000        0x0 ./unwind/libunwind.a(Lfind_dynamic_proc_info.o)
 .note.GNU-stack
                0x0000000000000000        0x0 ./unwind/libunwind.a(Lput_dynamic_unwind_info.o)
 .note.GNU-stack
                0x0000000000000000        0x0 ./unwind/libunwind.a(Lexpr.o)
 .note.GNU-stack
                0x0000000000000000        0x0 ./unwind/libunwind.a(Lfde.o)
 .note.GNU-stack
                0x0000000000000000        0x0 ./unwind/libunwind.a(dyn-info-list.o)
 .note.GNU-stack
                0x0000000000000000        0x0 ./unwind/libunwind.a(Ldyn-extract.o)
 .note.GNU-stack
                0x0000000000000000        0x0 /usr/lib/x86_64-linux-gnu/libpthread_nonshared.a(pthread_atfork.oS)
 .note.GNU-stack
                0x0000000000000000        0x0 /usr/lib/x86_64-linux-gnu/libc_nonshared.a(elf-init.oS)
 .note.GNU-stack
                0x0000000000000000        0x0 /usr/lib/gcc/x86_64-linux-gnu/4.6.1/crtend.o
 .note.GNU-stack
                0x0000000000000000        0x0 /usr/lib/gcc/x86_64-linux-gnu/4.6.1/../../../x86_64-linux-gnu/crtn.o
 .gnu_debuglink
                0x0000000000000000        0xc /usr/lib/gcc/x86_64-linux-gnu/4.6.1/../../../x86_64-linux-gnu/crtn.o

Memory Configuration

Name             Origin             Length             Attributes
*default*        0x0000000000000000 0xffffffffffffffff

Linker script and memory map

LOAD /usr/lib/gcc/x86_64-linux-gnu/4.6.1/../../../x86_64-linux-gnu/crt1.o
LOAD /usr/lib/gcc/x86_64-linux-gnu/4.6.1/../../../x86_64-linux-gnu/crti.o
LOAD /usr/lib/gcc/x86_64-linux-gnu/4.6.1/crtbegin.o
LOAD mpidriver.o
LOAD trace.o
LOAD novoalignCSMPI.a
LOAD ./tcmalloc/libtcmalloc.a
LOAD ./unwind/libunwind.a
LOAD /usr/lib/gcc/x86_64-linux-gnu/4.6.1/../../../x86_64-linux-gnu/libcrypto.so
LOAD /usr/lib/gcc/x86_64-linux-gnu/4.6.1/../../../x86_64-linux-gnu/libz.so
LOAD /usr/lib/gcc/x86_64-linux-gnu/4.6.1/../../../../lib/libbz2.so
LOAD /usr/lib/gcc/x86_64-linux-gnu/4.6.1/../../../x86_64-linux-gnu/libdl.so
LOAD /usr/local/lib/libmpichcxx.so
LOAD /usr/local/lib/libmpich.so
LOAD /usr/local/lib/libopa.so
LOAD /usr/local/lib/libmpl.so
LOAD /usr/lib/gcc/x86_64-linux-gnu/4.6.1/../../../x86_64-linux-gnu/librt.so
LOAD /usr/lib/gcc/x86_64-linux-gnu/4.6.1/../../../x86_64-linux-gnu/libpthread.so
START GROUP
LOAD /lib/x86_64-linux-gnu/libpthread.so.0
LOAD /usr/lib/x86_64-linux-gnu/libpthread_nonshared.a
END GROUP
LOAD /usr/lib/gcc/x86_64-linux-gnu/4.6.1/libstdc++.so
LOAD /usr/lib/gcc/x86_64-linux-gnu/4.6.1/../../../x86_64-linux-gnu/libm.so
LOAD /usr/lib/gcc/x86_64-linux-gnu/4.6.1/libgcc_s.so
LOAD /usr/lib/gcc/x86_64-linux-gnu/4.6.1/libgcc.a
LOAD /usr/lib/gcc/x86_64-linux-gnu/4.6.1/../../../x86_64-linux-gnu/libpthread.so
START GROUP
LOAD /lib/x86_64-linux-gnu/libpthread.so.0
LOAD /usr/lib/x86_64-linux-gnu/libpthread_nonshared.a
END GROUP
LOAD /usr/lib/gcc/x86_64-linux-gnu/4.6.1/../../../x86_64-linux-gnu/libc.so
START GROUP
LOAD /lib/x86_64-linux-gnu/libc.so.6
LOAD /usr/lib/x86_64-linux-gnu/libc_nonshared.a
LOAD /lib/x86_64-linux-gnu/ld-linux-x86-64.so.2
END GROUP
LOAD /usr/lib/gcc/x86_64-linux-gnu/4.6.1/libgcc_s.so
LOAD /usr/lib/gcc/x86_64-linux-gnu/4.6.1/libgcc.a
LOAD /usr/lib/gcc/x86_64-linux-gnu/4.6.1/crtend.o
LOAD /usr/lib/gcc/x86_64-linux-gnu/4.6.1/../../../x86_64-linux-gnu/crtn.o
                0x0000000000400000                PROVIDE (__executable_start, 0x400000)
                0x0000000000400270                . = (0x400000 + SIZEOF_HEADERS)

.interp         0x0000000000400270       0x1c
 *(.interp)
 .interp        0x0000000000400270       0x1c /usr/lib/gcc/x86_64-linux-gnu/4.6.1/../../../x86_64-linux-gnu/crt1.o

.note.ABI-tag   0x000000000040028c       0x20
 .note.ABI-tag  0x000000000040028c       0x20 /usr/lib/gcc/x86_64-linux-gnu/4.6.1/../../../x86_64-linux-gnu/crt1.o

.note.gnu.build-id
                0x00000000004002ac       0x24
 *(.note.gnu.build-id)
 .note.gnu.build-id
                0x00000000004002ac       0x24 /usr/lib/gcc/x86_64-linux-gnu/4.6.1/../../../x86_64-linux-gnu/crt1.o

.hash
 *(.hash)

.gnu.hash       0x00000000004002d0      0x4fc
 *(.gnu.hash)
 .gnu.hash      0x00000000004002d0      0x4fc /usr/lib/gcc/x86_64-linux-gnu/4.6.1/../../../x86_64-linux-gnu/crt1.o

.dynsym         0x00000000004007d0     0x23e8
 *(.dynsym)
 .dynsym        0x00000000004007d0     0x23e8 /usr/lib/gcc/x86_64-linux-gnu/4.6.1/../../../x86_64-linux-gnu/crt1.o

.dynstr         0x0000000000402bb8     0x1f52
 *(.dynstr)
 .dynstr        0x0000000000402bb8     0x1f52 /usr/lib/gcc/x86_64-linux-gnu/4.6.1/../../../x86_64-linux-gnu/crt1.o

.gnu.version    0x0000000000404b0a      0x2fe
 *(.gnu.version)
 .gnu.version   0x0000000000404b0a      0x2fe /usr/lib/gcc/x86_64-linux-gnu/4.6.1/../../../x86_64-linux-gnu/crt1.o

.gnu.version_d  0x0000000000404e08        0x0
 *(.gnu.version_d)
 .gnu.version_d
                0x0000000000000000        0x0 /usr/lib/gcc/x86_64-linux-gnu/4.6.1/../../../x86_64-linux-gnu/crt1.o

.gnu.version_r  0x0000000000404e08      0x170
 *(.gnu.version_r)
 .gnu.version_r
                0x0000000000404e08      0x170 /usr/lib/gcc/x86_64-linux-gnu/4.6.1/../../../x86_64-linux-gnu/crt1.o

.rela.dyn       0x0000000000404f78      0xa38
 *(.rela.init)
 *(.rela.text .rela.text.* .rela.gnu.linkonce.t.*)
 .rela.text     0x0000000000000000        0x0 /usr/lib/gcc/x86_64-linux-gnu/4.6.1/../../../x86_64-linux-gnu/crt1.o
 .rela.text._ZN6TMutexD2Ev
                0x0000000000000000        0x0 /usr/lib/gcc/x86_64-linux-gnu/4.6.1/../../../x86_64-linux-gnu/crt1.o
 .rela.text._ZN10alignstats6reportEP8_IO_FILE
                0x0000000000000000        0x0 /usr/lib/gcc/x86_64-linux-gnu/4.6.1/../../../x86_64-linux-gnu/crt1.o
 .rela.text._ZN6TMutexC2Ev
                0x0000000000000000        0x0 /usr/lib/gcc/x86_64-linux-gnu/4.6.1/../../../x86_64-linux-gnu/crt1.o
 .rela.text._ZN8fragdistD2Ev
                0x0000000000000000        0x0 /usr/lib/gcc/x86_64-linux-gnu/4.6.1/../../../x86_64-linux-gnu/crt1.o
 .rela.text._ZN9novoparamUt0_D2Ev
                0x0000000000000000        0x0 /usr/lib/gcc/x86_64-linux-gnu/4.6.1/../../../x86_64-linux-gnu/crt1.o
 .rela.text._ZN9novoparamD2Ev
                0x0000000000000000        0x0 /usr/lib/gcc/x86_64-linux-gnu/4.6.1/../../../x86_64-linux-gnu/crt1.o
 .rela.text._ZN11fragdistMPIC2Ev
                0x0000000000000000        0x0 /usr/lib/gcc/x86_64-linux-gnu/4.6.1/../../../x86_64-linux-gnu/crt1.o
 .rela.text.startup
                0x0000000000000000        0x0 /usr/lib/gcc/x86_64-linux-gnu/4.6.1/../../../x86_64-linux-gnu/crt1.o
 .rela.text._Z12grp_lessnameRK8seqgroupS1_
                0x0000000000000000        0x0 /usr/lib/gcc/x86_64-linux-gnu/4.6.1/../../../x86_64-linux-gnu/crt1.o
 .rela.text._ZNSt6vectorI8seqgroupSaIS0_EE13_M_insert_auxEN9__gnu_cxx17__normal_iteratorIPS0_S2_EERKS0_
                0x0000000000000000        0x0 /usr/lib/gcc/x86_64-linux-gnu/4.6.1/../../../x86_64-linux-gnu/crt1.o
 .rela.text._ZSt16__insertion_sortIN9__gnu_cxx17__normal_iteratorIP8seqgroupSt6vectorIS2_SaIS2_EEEEEvT_S8_
                0x0000000000000000        0x0 /usr/lib/gcc/x86_64-linux-gnu/4.6.1/../../../x86_64-linux-gnu/crt1.o
 .rela.text._ZSt13__heap_selectIN9__gnu_cxx17__normal_iteratorIP8seqgroupSt6vectorIS2_SaIS2_EEEEEvT_S8_S8_
                0x0000000000000000        0x0 /usr/lib/gcc/x86_64-linux-gnu/4.6.1/../../../x86_64-linux-gnu/crt1.o
 .rela.text._ZSt16__introsort_loopIN9__gnu_cxx17__normal_iteratorIP8seqgroupSt6vectorIS2_SaIS2_EEEElEvT_S8_T0_
                0x0000000000000000        0x0 /usr/lib/gcc/x86_64-linux-gnu/4.6.1/../../../x86_64-linux-gnu/crt1.o
 .rela.text._ZN8reporter8filetypeEPKc
                0x0000000000000000        0x0 /usr/lib/gcc/x86_64-linux-gnu/4.6.1/../../../x86_64-linux-gnu/crt1.o
 .rela.text._ZN8reporter6dbinfoEv
                0x0000000000000000        0x0 /usr/lib/gcc/x86_64-linux-gnu/4.6.1/../../../x86_64-linux-gnu/crt1.o
 .rela.text._ZN8reporter5startEiPPciiPKc
                0x0000000000000000        0x0 /usr/lib/gcc/x86_64-linux-gnu/4.6.1/../../../x86_64-linux-gnu/crt1.o
 .rela.text._ZN9findamateD2Ev
                0x0000000000000000        0x0 /usr/lib/gcc/x86_64-linux-gnu/4.6.1/../../../x86_64-linux-gnu/crt1.o
 .rela.text._ZN12alignmentrpt9sidealignD2Ev
                0x0000000000000000        0x0 /usr/lib/gcc/x86_64-linux-gnu/4.6.1/../../../x86_64-linux-gnu/crt1.o
 .rela.text._ZN10pe_adapterD2Ev
                0x0000000000000000        0x0 /usr/lib/gcc/x86_64-linux-gnu/4.6.1/../../../x86_64-linux-gnu/crt1.o
 .rela.text._ZN12alignmentrptD2Ev
                0x0000000000000000        0x0 /usr/lib/gcc/x86_64-linux-gnu/4.6.1/../../../x86_64-linux-gnu/crt1.o
 .rela.text._ZN8rptBlastD2Ev
                0x0000000000000000        0x0 /usr/lib/gcc/x86_64-linux-gnu/4.6.1/../../../x86_64-linux-gnu/crt1.o
 .rela.text._ZN8rptBlastD0Ev
                0x0000000000000000        0x0 /usr/lib/gcc/x86_64-linux-gnu/4.6.1/../../../x86_64-linux-gnu/crt1.o
 .rela.text._ZN8reporter9rptprintfEPKcz
                0x0000000000000000        0x0 /usr/lib/gcc/x86_64-linux-gnu/4.6.1/../../../x86_64-linux-gnu/crt1.o
 .rela.text._ZN8rptBlast7resultsEP8wmsearch6t_side
                0x0000000000000000        0x0 /usr/lib/gcc/x86_64-linux-gnu/4.6.1/../../../x86_64-linux-gnu/crt1.o
 .rela.text._ZN8rptBlast9polyAreadEP8wmsearch6t_side
                0x0000000000000000        0x0 /usr/lib/gcc/x86_64-linux-gnu/4.6.1/../../../x86_64-linux-gnu/crt1.o
 .rela.text._ZN8rptBlast8noresultEP8wmsearch6t_side
                0x0000000000000000        0x0 /usr/lib/gcc/x86_64-linux-gnu/4.6.1/../../../x86_64-linux-gnu/crt1.o
 .rela.text._ZN8rptBlast8lowqreadEP8wmsearch6t_side
                0x0000000000000000        0x0 /usr/lib/gcc/x86_64-linux-gnu/4.6.1/../../../x86_64-linux-gnu/crt1.o
 .rela.text._ZN8rptBlast11reportpairsEP8wmsearch
                0x0000000000000000        0x0 /usr/lib/gcc/x86_64-linux-gnu/4.6.1/../../../x86_64-linux-gnu/crt1.o
 .rela.text._ZN11queryreaderD2Ev
                0x0000000000000000        0x0 /usr/lib/gcc/x86_64-linux-gnu/4.6.1/../../../x86_64-linux-gnu/crt1.o
 .rela.text._ZNSt6vectorI12alignmentrptSaIS0_EED2Ev
                0x0000000000000000        0x0 /usr/lib/gcc/x86_64-linux-gnu/4.6.1/../../../x86_64-linux-gnu/crt1.o
 .rela.text._ZNSt8_Rb_treeIllSt9_IdentityIlESt4lessIlESaIlEE8_M_eraseEPSt13_Rb_tree_nodeIlE
                0x0000000000000000        0x0 /usr/lib/gcc/x86_64-linux-gnu/4.6.1/../../../x86_64-linux-gnu/crt1.o
 .rela.text._ZNSt8_Rb_treeI13simdalignmentS0_St9_IdentityIS0_ESt4lessIS0_ESaIS0_EE8_M_eraseEPSt13_Rb_tree_nodeIS0_E
                0x0000000000000000        0x0 /usr/lib/gcc/x86_64-linux-gnu/4.6.1/../../../x86_64-linux-gnu/crt1.o
 .rela.text._ZN8wmsearchD2Ev
                0x0000000000000000        0x0 /usr/lib/gcc/x86_64-linux-gnu/4.6.1/../../../x86_64-linux-gnu/crt1.o
 .rela.text._ZN15novoalign_slaveD2Ev
                0x0000000000000000        0x0 /usr/lib/gcc/x86_64-linux-gnu/4.6.1/../../../x86_64-linux-gnu/crt1.o
 .rela.text._ZN15novoalign_slaveD0Ev
                0x0000000000000000        0x0 /usr/lib/gcc/x86_64-linux-gnu/4.6.1/../../../x86_64-linux-gnu/crt1.o
 .rela.text._ZN8reporterD2Ev
                0x0000000000000000        0x0 /usr/lib/gcc/x86_64-linux-gnu/4.6.1/../../../x86_64-linux-gnu/crt1.o
 .rela.text._ZN8reporterD0Ev
                0x0000000000000000        0x0 /usr/lib/gcc/x86_64-linux-gnu/4.6.1/../../../x86_64-linux-gnu/crt1.o
 .rela.text._ZN9rptNativeD0Ev
                0x0000000000000000        0x0 /usr/lib/gcc/x86_64-linux-gnu/4.6.1/../../../x86_64-linux-gnu/crt1.o
 .rela.text._ZN9rptNativeD2Ev
                0x0000000000000000        0x0 /usr/lib/gcc/x86_64-linux-gnu/4.6.1/../../../x86_64-linux-gnu/crt1.o
 .rela.text._ZN6rptSAMD0Ev
                0x0000000000000000        0x0 /usr/lib/gcc/x86_64-linux-gnu/4.6.1/../../../x86_64-linux-gnu/crt1.o
 .rela.text._ZN6rptSAMD2Ev
                0x0000000000000000        0x0 /usr/lib/gcc/x86_64-linux-gnu/4.6.1/../../../x86_64-linux-gnu/crt1.o
 .rela.text._ZN6rptSAM12stringprintfERSsPKcz
                0x0000000000000000        0x0 /usr/lib/gcc/x86_64-linux-gnu/4.6.1/../../../x86_64-linux-gnu/crt1.o
 .rela.text._ZN8TPoolThrD2Ev
                0x0000000000000000        0x0 /usr/lib/gcc/x86_64-linux-gnu/4.6.1/../../../x86_64-linux-gnu/crt1.o
 .rela.text._ZN8TPoolThrD0Ev
                0x0000000000000000        0x0 /usr/lib/gcc/x86_64-linux-gnu/4.6.1/../../../x86_64-linux-gnu/crt1.o
 .rela.text._ZN10TConditionD2Ev
                0x0000000000000000        0x0 /usr/lib/gcc/x86_64-linux-gnu/4.6.1/../../../x86_64-linux-gnu/crt1.o
 .rela.text._ZN8TPoolThr3runEv
                0x0000000000000000        0x0 /usr/lib/gcc/x86_64-linux-gnu/4.6.1/../../../x86_64-linux-gnu/crt1.o
 .rela.text._ZN3sllIP8TPoolThrED2Ev
                0x0000000000000000        0x0 /usr/lib/gcc/x86_64-linux-gnu/4.6.1/../../../x86_64-linux-gnu/crt1.o
 .rela.text._ZNK12alignmentrpt11pairqualityEdP9novoparam
                0x0000000000000000        0x0 /usr/lib/gcc/x86_64-linux-gnu/4.6.1/../../../x86_64-linux-gnu/crt1.o
 .rela.text._ZN12alignmentrptC2ERKS_
                0x0000000000000000        0x0 /usr/lib/gcc/x86_64-linux-gnu/4.6.1/../../../x86_64-linux-gnu/crt1.o
 .rela.text._ZNSt8_Rb_treeIllSt9_IdentityIlESt4lessIlESaIlEE16_M_insert_uniqueERKl
                0x0000000000000000        0x0 /usr/lib/gcc/x86_64-linux-gnu/4.6.1/../../../x86_64-linux-gnu/crt1.o
 .rela.text._ZNSt6vectorI13simdalignmentSaIS0_EE13_M_insert_auxEN9__gnu_cxx17__normal_iteratorIPS0_S2_EERKS0_
                0x0000000000000000        0x0 /usr/lib/gcc/x86_64-linux-gnu/4.6.1/../../../x86_64-linux-gnu/crt1.o
 .rela.text._ZN12alignmentrptaSERKS_
                0x0000000000000000        0x0 /usr/lib/gcc/x86_64-linux-gnu/4.6.1/../../../x86_64-linux-gnu/crt1.o
 .rela.text._ZSt16__insertion_sortIN9__gnu_cxx17__normal_iteratorIP12alignmentrptSt6vectorIS2_SaIS2_EEEEPFbRKS2_S9_EEvT_SC_T0_
                0x0000000000000000        0x0 /usr/lib/gcc/x86_64-linux-gnu/4.6.1/../../../x86_64-linux-gnu/crt1.o
 .rela.text._ZNSt6vectorI12alignmentrptSaIS0_EE14_M_fill_insertEN9__gnu_cxx17__normal_iteratorIPS0_S2_EEmRKS0_
                0x0000000000000000        0x0 /usr/lib/gcc/x86_64-linux-gnu/4.6.1/../../../x86_64-linux-gnu/crt1.o
 .rela.text._ZNSt8_Rb_treeI13simdalignmentS0_St9_IdentityIS0_ESt4lessIS0_ESaIS0_EE10_M_insert_EPKSt18_Rb_tree_node_baseS9_RKS0_
                0x0000000000000000        0x0 /usr/lib/gcc/x86_64-linux-gnu/4.6.1/../../../x86_64-linux-gnu/crt1.o
 .rela.text._ZNSt8_Rb_treeI13simdalignmentS0_St9_IdentityIS0_ESt4lessIS0_ESaIS0_EE16_M_insert_uniqueERKS0_
                0x0000000000000000        0x0 /usr/lib/gcc/x86_64-linux-gnu/4.6.1/../../../x86_64-linux-gnu/crt1.o
 .rela.text._ZNSt6vectorI13simdalignmentSaIS0_EE15_M_range_insertIN9__gnu_cxx17__normal_iteratorIPS0_S2_EEEEvS7_T_S8_St20forward_iterator_tag
                0x0000000000000000        0x0 /usr/lib/gcc/x86_64-linux-gnu/4.6.1/../../../x86_64-linux-gnu/crt1.o
 .rela.text._ZSt9make_heapIN9__gnu_cxx17__normal_iteratorIP12alignmentrptSt6vectorIS2_SaIS2_EEEEPFbRKS2_S9_EEvT_SC_T0_
                0x0000000000000000        0x0 /usr/lib/gcc/x86_64-linux-gnu/4.6.1/../../../x86_64-linux-gnu/crt1.o
 .rela.text._ZSt10__pop_heapIN9__gnu_cxx17__normal_iteratorIP12alignmentrptSt6vectorIS2_SaIS2_EEEEPFbRKS2_S9_EEvT_SC_SC_T0_
                0x0000000000000000        0x0 /usr/lib/gcc/x86_64-linux-gnu/4.6.1/../../../x86_64-linux-gnu/crt1.o
 .rela.text._ZSt13__heap_selectIN9__gnu_cxx17__normal_iteratorIP13simdalignmentSt6vectorIS2_SaIS2_EEEEPFbRKS2_S9_EEvT_SC_SC_T0_
                0x0000000000000000        0x0 /usr/lib/gcc/x86_64-linux-gnu/4.6.1/../../../x86_64-linux-gnu/crt1.o
 .rela.text._ZSt16__introsort_loopIN9__gnu_cxx17__normal_iteratorIP13simdalignmentSt6vectorIS2_SaIS2_EEEElPFbRKS2_S9_EEvT_SC_T0_T1_
                0x0000000000000000        0x0 /usr/lib/gcc/x86_64-linux-gnu/4.6.1/../../../x86_64-linux-gnu/crt1.o
 .rela.text._ZSt4sortIN9__gnu_cxx17__normal_iteratorIP13simdalignmentSt6vectorIS2_SaIS2_EEEEPFbRKS2_S9_EEvT_SC_T0_
                0x0000000000000000        0x0 /usr/lib/gcc/x86_64-linux-gnu/4.6.1/../../../x86_64-linux-gnu/crt1.o
 .rela.text._ZSt4swapI12alignmentrptEvRT_S2_
                0x0000000000000000        0x0 /usr/lib/gcc/x86_64-linux-gnu/4.6.1/../../../x86_64-linux-gnu/crt1.o
 .rela.text._ZSt19__move_median_firstIN9__gnu_cxx17__normal_iteratorIP12alignmentrptSt6vectorIS2_SaIS2_EEEEPFbRKS2_S9_EEvT_SC_SC_T0_
                0x0000000000000000        0x0 /usr/lib/gcc/x86_64-linux-gnu/4.6.1/../../../x86_64-linux-gnu/crt1.o
 .rela.text._ZSt16__introsort_loopIN9__gnu_cxx17__normal_iteratorIP12alignmentrptSt6vectorIS2_SaIS2_EEEElPFbRKS2_S9_EEvT_SC_T0_T1_
                0x0000000000000000        0x0 /usr/lib/gcc/x86_64-linux-gnu/4.6.1/../../../x86_64-linux-gnu/crt1.o
 .rela.text.unlikely
                0x0000000000000000        0x0 /usr/lib/gcc/x86_64-linux-gnu/4.6.1/../../../x86_64-linux-gnu/crt1.o
 .rela.text._ZN22TCMallocImplementation20SetMemoryReleaseRateEd
                0x0000000000000000        0x0 /usr/lib/gcc/x86_64-linux-gnu/4.6.1/../../../x86_64-linux-gnu/crt1.o
 .rela.text._ZN22TCMallocImplementation20GetMemoryReleaseRateEv
                0x0000000000000000        0x0 /usr/lib/gcc/x86_64-linux-gnu/4.6.1/../../../x86_64-linux-gnu/crt1.o
 .rela.text._ZN22TCMallocImplementationD2Ev
                0x0000000000000000        0x0 /usr/lib/gcc/x86_64-linux-gnu/4.6.1/../../../x86_64-linux-gnu/crt1.o
 .rela.text._ZN22TCMallocImplementationD0Ev
                0x0000000000000000        0x0 /usr/lib/gcc/x86_64-linux-gnu/4.6.1/../../../x86_64-linux-gnu/crt1.o
 .rela.text._ZN22TCMallocImplementation14MarkThreadIdleEv
                0x0000000000000000        0x0 /usr/lib/gcc/x86_64-linux-gnu/4.6.1/../../../x86_64-linux-gnu/crt1.o
 .rela.text._ZN22TCMallocImplementation13GetHeapSampleEPSs
                0x0000000000000000        0x0 /usr/lib/gcc/x86_64-linux-gnu/4.6.1/../../../x86_64-linux-gnu/crt1.o
 .rela.text._ZN22TCMallocImplementation25GetEstimatedAllocatedSizeEm
                0x0000000000000000        0x0 /usr/lib/gcc/x86_64-linux-gnu/4.6.1/../../../x86_64-linux-gnu/crt1.o
 .rela.text._ZN22TCMallocImplementation12GetOwnershipEPKv
                0x0000000000000000        0x0 /usr/lib/gcc/x86_64-linux-gnu/4.6.1/../../../x86_64-linux-gnu/crt1.o
 .rela.text._ZN22TCMallocImplementation18GetSystemAllocatorEv
                0x0000000000000000        0x0 /usr/lib/gcc/x86_64-linux-gnu/4.6.1/../../../x86_64-linux-gnu/crt1.o
 .rela.text._ZN22TCMallocImplementation18SetSystemAllocatorEP12SysAllocator
                0x0000000000000000        0x0 /usr/lib/gcc/x86_64-linux-gnu/4.6.1/../../../x86_64-linux-gnu/crt1.o
 .rela.text._ZN22TCMallocImplementation25ReadHeapGrowthStackTracesEv
                0x0000000000000000        0x0 /usr/lib/gcc/x86_64-linux-gnu/4.6.1/../../../x86_64-linux-gnu/crt1.o
 .rela.text._ZN14SpinLockHolderD2Ev
                0x0000000000000000        0x0 /usr/lib/gcc/x86_64-linux-gnu/4.6.1/../../../x86_64-linux-gnu/crt1.o
 .rela.text._ZN22TCMallocImplementation18SetNumericPropertyEPKcm
                0x0000000000000000        0x0 /usr/lib/gcc/x86_64-linux-gnu/4.6.1/../../../x86_64-linux-gnu/crt1.o
 .rela.text._ZN22TCMallocImplementation6RangesEPvPFvS0_PKN4base11MallocRangeEE
                0x0000000000000000        0x0 /usr/lib/gcc/x86_64-linux-gnu/4.6.1/../../../x86_64-linux-gnu/crt1.o
 .rela.text._ZN22TCMallocImplementation15ReadStackTracesEPi
                0x0000000000000000        0x0 /usr/lib/gcc/x86_64-linux-gnu/4.6.1/../../../x86_64-linux-gnu/crt1.o
 .rela.text._ZN22TCMallocImplementation15ReleaseToSystemEm
                0x0000000000000000        0x0 /usr/lib/gcc/x86_64-linux-gnu/4.6.1/../../../x86_64-linux-gnu/crt1.o
 .rela.text._ZN22TCMallocImplementation18GetNumericPropertyEPKcPm
                0x0000000000000000        0x0 /usr/lib/gcc/x86_64-linux-gnu/4.6.1/../../../x86_64-linux-gnu/crt1.o
 .rela.text._ZN8tcmalloc11ThreadCache8GetCacheEv
                0x0000000000000000        0x0 /usr/lib/gcc/x86_64-linux-gnu/4.6.1/../../../x86_64-linux-gnu/crt1.o
 .rela.text._ZNSt6vectorIN15MallocExtension12FreeListInfoESaIS1_EE13_M_insert_auxEN9__gnu_cxx17__normal_iteratorIPS1_S3_EERKS1_
                0x0000000000000000        0x0 /usr/lib/gcc/x86_64-linux-gnu/4.6.1/../../../x86_64-linux-gnu/crt1.o
 .rela.text._ZN22TCMallocImplementation16GetFreeListSizesEPSt6vectorIN15MallocExtension12FreeListInfoESaIS2_EE
                0x0000000000000000        0x0 /usr/lib/gcc/x86_64-linux-gnu/4.6.1/../../../x86_64-linux-gnu/crt1.o
 .rela.text._ZN15HeapLeakChecker9Allocator8AllocateEm
                0x0000000000000000        0x0 /usr/lib/gcc/x86_64-linux-gnu/4.6.1/../../../x86_64-linux-gnu/crt1.o
 .rela.text._ZN15HeapLeakChecker9Allocator4FreeEPv
                0x0000000000000000        0x0 /usr/lib/gcc/x86_64-linux-gnu/4.6.1/../../../x86_64-linux-gnu/crt1.o
 .rela.text._ZNSbIcSt11char_traitsIcE13STL_AllocatorIcN15HeapLeakChecker9AllocatorEEED2Ev
                0x0000000000000000        0x0 /usr/lib/gcc/x86_64-linux-gnu/4.6.1/../../../x86_64-linux-gnu/crt1.o
 .rela.text._ZNSt4pairIKSbIcSt11char_traitsIcE13STL_AllocatorIcN15HeapLeakChecker9AllocatorEEESt6vectorI11AllocObjectS2_IS9_S4_EEED2Ev
                0x0000000000000000        0x0 /usr/lib/gcc/x86_64-linux-gnu/4.6.1/../../../x86_64-linux-gnu/crt1.o
 .rela.text._ZNSt6vectorI11AllocObject13STL_AllocatorIS0_N15HeapLeakChecker9AllocatorEEE13_M_insert_auxEN9__gnu_cxx17__normal_iteratorIPS0_S5_EERKS0_
                0x0000000000000000        0x0 /usr/lib/gcc/x86_64-linux-gnu/4.6.1/../../../x86_64-linux-gnu/crt1.o
 .rela.text._ZNSt6vectorIPv13STL_AllocatorIS0_N15HeapLeakChecker9AllocatorEEE13_M_insert_auxEN9__gnu_cxx17__normal_iteratorIPS0_S5_EERKS0_
                0x0000000000000000        0x0 /usr/lib/gcc/x86_64-linux-gnu/4.6.1/../../../x86_64-linux-gnu/crt1.o
 .rela.text._ZNSt6vectorIPFvvESaIS1_EE13_M_insert_auxEN9__gnu_cxx17__normal_iteratorIPS1_S3_EERKS1_
                0x0000000000000000        0x0 /usr/lib/gcc/x86_64-linux-gnu/4.6.1/../../../x86_64-linux-gnu/crt1.o
 .rela.text._ZNSt8_Rb_treeImmSt9_IdentityImESt4lessImE13STL_AllocatorImN15HeapLeakChecker9AllocatorEEE10_M_insert_EPKSt18_Rb_tree_node_baseSB_RKm
                0x0000000000000000        0x0 /usr/lib/gcc/x86_64-linux-gnu/4.6.1/../../../x86_64-linux-gnu/crt1.o
 .rela.text._ZNSt8_Rb_treeImmSt9_IdentityImESt4lessImE13STL_AllocatorImN15HeapLeakChecker9AllocatorEEE16_M_insert_uniqueERKm
                0x0000000000000000        0x0 /usr/lib/gcc/x86_64-linux-gnu/4.6.1/../../../x86_64-linux-gnu/crt1.o
 .rela.text._ZNSbIcSt11char_traitsIcE13STL_AllocatorIcN15HeapLeakChecker9AllocatorEEEC2ERKS5_
                0x0000000000000000        0x0 /usr/lib/gcc/x86_64-linux-gnu/4.6.1/../../../x86_64-linux-gnu/crt1.o
 .rela.text._ZNSt8_Rb_treeImSt4pairIKmmESt10_Select1stIS2_ESt4lessImE13STL_AllocatorIS2_N15HeapLeakChecker9AllocatorEEE8_M_eraseEPSt13_Rb_tree_nodeIS2_E
                0x0000000000000000        0x0 /usr/lib/gcc/x86_64-linux-gnu/4.6.1/../../../x86_64-linux-gnu/crt1.o
 .rela.text._ZNSt8_Rb_treeImSt4pairIKmmESt10_Select1stIS2_ESt4lessImE13STL_AllocatorIS2_N15HeapLeakChecker9AllocatorEEE10_M_insert_EPKSt18_Rb_tree_node_baseSE_RKS2_
                0x0000000000000000        0x0 /usr/lib/gcc/x86_64-linux-gnu/4.6.1/../../../x86_64-linux-gnu/crt1.o
 .rela.text._ZNSt8_Rb_treeImSt4pairIKmmESt10_Select1stIS2_ESt4lessImE13STL_AllocatorIS2_N15HeapLeakChecker9AllocatorEEE16_M_insert_uniqueERKS2_
                0x0000000000000000        0x0 /usr/lib/gcc/x86_64-linux-gnu/4.6.1/../../../x86_64-linux-gnu/crt1.o
 .rela.text._ZNSt8_Rb_treeISbIcSt11char_traitsIcE13STL_AllocatorIcN15HeapLeakChecker9AllocatorEEESt4pairIKS6_St6vectorI11AllocObjectS2_ISA_S4_EEESt10_Select1stISD_ESt4lessIS6_ES2_ISD_S4_EE8_M_eraseEPSt13_Rb_tree_nodeISD_E
                0x0000000000000000        0x0 /usr/lib/gcc/x86_64-linux-gnu/4.6.1/../../../x86_64-linux-gnu/crt1.o
 .rela.text._ZNSt8_Rb_treeImmSt9_IdentityImESt4lessImE13STL_AllocatorImN15HeapLeakChecker9AllocatorEEE8_M_eraseEPSt13_Rb_tree_nodeImE
                0x0000000000000000        0x0 /usr/lib/gcc/x86_64-linux-gnu/4.6.1/../../../x86_64-linux-gnu/crt1.o
 .rela.text._ZNSt8_Rb_treeImSt4pairIKmN15HeapLeakChecker10RangeValueEESt10_Select1stIS4_ESt4lessImE13STL_AllocatorIS4_NS2_9AllocatorEEE8_M_eraseEPSt13_Rb_tree_nodeIS4_E
                0x0000000000000000        0x0 /usr/lib/gcc/x86_64-linux-gnu/4.6.1/../../../x86_64-linux-gnu/crt1.o
 .rela.text._ZNSt8_Rb_treeImSt4pairIKmN15HeapLeakChecker10RangeValueEESt10_Select1stIS4_ESt4lessImE13STL_AllocatorIS4_NS2_9AllocatorEEE10_M_insert_EPKSt18_Rb_tree_node_baseSF_RKS4_
                0x0000000000000000        0x0 /usr/lib/gcc/x86_64-linux-gnu/4.6.1/../../../x86_64-linux-gnu/crt1.o
 .rela.text._ZNSt8_Rb_treeImSt4pairIKmN15HeapLeakChecker10RangeValueEESt10_Select1stIS4_ESt4lessImE13STL_AllocatorIS4_NS2_9AllocatorEEE16_M_insert_uniqueERKS4_
                0x0000000000000000        0x0 /usr/lib/gcc/x86_64-linux-gnu/4.6.1/../../../x86_64-linux-gnu/crt1.o
 .rela.text._ZNSbIcSt11char_traitsIcE13STL_AllocatorIcN15HeapLeakChecker9AllocatorEEE12_S_constructIPKcEEPcT_SA_RKS4_St20forward_iterator_tag
                0x0000000000000000        0x0 /usr/lib/gcc/x86_64-linux-gnu/4.6.1/../../../x86_64-linux-gnu/crt1.o
 .rela.text._ZNSt8_Rb_treeISbIcSt11char_traitsIcE13STL_AllocatorIcN15HeapLeakChecker9AllocatorEEESt4pairIKS6_St6vectorI11AllocObjectS2_ISA_S4_EEESt10_Select1stISD_ESt4lessIS6_ES2_ISD_S4_EE10_M_insert_EPKSt18_Rb_tree_node_baseSM_RKSD_
                0x0000000000000000        0x0 /usr/lib/gcc/x86_64-linux-gnu/4.6.1/../../../x86_64-linux-gnu/crt1.o
 .rela.text._ZNSt8_Rb_treeISbIcSt11char_traitsIcE13STL_AllocatorIcN15HeapLeakChecker9AllocatorEEESt4pairIKS6_St6vectorI11AllocObjectS2_ISA_S4_EEESt10_Select1stISD_ESt4lessIS6_ES2_ISD_S4_EE16_M_insert_uniqueERKSD_
                0x0000000000000000        0x0 /usr/lib/gcc/x86_64-linux-gnu/4.6.1/../../../x86_64-linux-gnu/crt1.o
 .rela.text._ZNSt8_Rb_treeISbIcSt11char_traitsIcE13STL_AllocatorIcN15HeapLeakChecker9AllocatorEEESt4pairIKS6_St6vectorI11AllocObjectS2_ISA_S4_EEESt10_Select1stISD_ESt4lessIS6_ES2_ISD_S4_EE17_M_insert_unique_ESt23_Rb_tree_const_iteratorISD_ERKSD_
                0x0000000000000000        0x0 /usr/lib/gcc/x86_64-linux-gnu/4.6.1/../../../x86_64-linux-gnu/crt1.o
 .rela.text._ZN28HeapLeakCheckerGlobalPrePostD2Ev
                0x0000000000000000        0x0 /usr/lib/gcc/x86_64-linux-gnu/4.6.1/../../../x86_64-linux-gnu/crt1.o
 *(.rela.fini)
 *(.rela.rodata .rela.rodata.* .rela.gnu.linkonce.r.*)
 .rela.rodata._ZTI10mpi_driver
                0x0000000000000000        0x0 /usr/lib/gcc/x86_64-linux-gnu/4.6.1/../../../x86_64-linux-gnu/crt1.o
 .rela.rodata._ZTV10mpi_driver
                0x0000000000000000        0x0 /usr/lib/gcc/x86_64-linux-gnu/4.6.1/../../../x86_64-linux-gnu/crt1.o
 .rela.rodata._ZTV8mpistats
                0x0000000000000000        0x0 /usr/lib/gcc/x86_64-linux-gnu/4.6.1/../../../x86_64-linux-gnu/crt1.o
 .rela.rodata._ZTV11fragdistMPI
                0x0000000000000000        0x0 /usr/lib/gcc/x86_64-linux-gnu/4.6.1/../../../x86_64-linux-gnu/crt1.o
 .rela.rodata._ZTI8mpistats
                0x0000000000000000        0x0 /usr/lib/gcc/x86_64-linux-gnu/4.6.1/../../../x86_64-linux-gnu/crt1.o
 .rela.rodata._ZTI11fragdistMPI
                0x0000000000000000        0x0 /usr/lib/gcc/x86_64-linux-gnu/4.6.1/../../../x86_64-linux-gnu/crt1.o
 .rela.rodata._ZTI10alignstats
                0x0000000000000000        0x0 /usr/lib/gcc/x86_64-linux-gnu/4.6.1/../../../x86_64-linux-gnu/crt1.o
 .rela.rodata._ZTI8fragdist
                0x0000000000000000        0x0 /usr/lib/gcc/x86_64-linux-gnu/4.6.1/../../../x86_64-linux-gnu/crt1.o
 .rela.rodata._ZTV8fragdist
                0x0000000000000000        0x0 /usr/lib/gcc/x86_64-linux-gnu/4.6.1/../../../x86_64-linux-gnu/crt1.o
 .rela.rodata._ZTI12novoalignmpi
                0x0000000000000000        0x0 /usr/lib/gcc/x86_64-linux-gnu/4.6.1/../../../x86_64-linux-gnu/crt1.o
 .rela.rodata._ZTI15novoalign_slave
                0x0000000000000000        0x0 /usr/lib/gcc/x86_64-linux-gnu/4.6.1/../../../x86_64-linux-gnu/crt1.o
 .rela.rodata._ZTV12novoalignmpi
                0x0000000000000000        0x0 /usr/lib/gcc/x86_64-linux-gnu/4.6.1/../../../x86_64-linux-gnu/crt1.o
 .rela.rodata._ZTV15novoalign_slave
                0x0000000000000000        0x0 /usr/lib/gcc/x86_64-linux-gnu/4.6.1/../../../x86_64-linux-gnu/crt1.o
 .rela.rodata._ZTV8rptBlast
                0x0000000000000000        0x0 /usr/lib/gcc/x86_64-linux-gnu/4.6.1/../../../x86_64-linux-gnu/crt1.o
 .rela.rodata._ZTI8rptBlast
                0x0000000000000000        0x0 /usr/lib/gcc/x86_64-linux-gnu/4.6.1/../../../x86_64-linux-gnu/crt1.o
 .rela.rodata._ZTI8reporter
                0x0000000000000000        0x0 /usr/lib/gcc/x86_64-linux-gnu/4.6.1/../../../x86_64-linux-gnu/crt1.o
 .rela.rodata._ZTV8reporter
                0x0000000000000000        0x0 /usr/lib/gcc/x86_64-linux-gnu/4.6.1/../../../x86_64-linux-gnu/crt1.o
 .rela.rodata._ZTI9rptNative
                0x0000000000000000        0x0 /usr/lib/gcc/x86_64-linux-gnu/4.6.1/../../../x86_64-linux-gnu/crt1.o
 .rela.rodata._ZTV9rptNative
                0x0000000000000000        0x0 /usr/lib/gcc/x86_64-linux-gnu/4.6.1/../../../x86_64-linux-gnu/crt1.o
 .rela.rodata._ZTI6rptSAM
                0x0000000000000000        0x0 /usr/lib/gcc/x86_64-linux-gnu/4.6.1/../../../x86_64-linux-gnu/crt1.o
 .rela.rodata._ZTV6rptSAM
                0x0000000000000000        0x0 /usr/lib/gcc/x86_64-linux-gnu/4.6.1/../../../x86_64-linux-gnu/crt1.o
 .rela.rodata._ZTI7TThread
                0x0000000000000000        0x0 /usr/lib/gcc/x86_64-linux-gnu/4.6.1/../../../x86_64-linux-gnu/crt1.o
 .rela.rodata._ZTV7TThread
                0x0000000000000000        0x0 /usr/lib/gcc/x86_64-linux-gnu/4.6.1/../../../x86_64-linux-gnu/crt1.o
 .rela.rodata._ZTIN11TThreadPool4TJobE
                0x0000000000000000        0x0 /usr/lib/gcc/x86_64-linux-gnu/4.6.1/../../../x86_64-linux-gnu/crt1.o
 .rela.rodata._ZTVN11TThreadPool4TJobE
                0x0000000000000000        0x0 /usr/lib/gcc/x86_64-linux-gnu/4.6.1/../../../x86_64-linux-gnu/crt1.o
 .rela.rodata._ZTV8TPoolThr
                0x0000000000000000        0x0 /usr/lib/gcc/x86_64-linux-gnu/4.6.1/../../../x86_64-linux-gnu/crt1.o
 .rela.rodata._ZTI8TPoolThr
                0x0000000000000000        0x0 /usr/lib/gcc/x86_64-linux-gnu/4.6.1/../../../x86_64-linux-gnu/crt1.o
 .rela.rodata._ZTI22TCMallocImplementation
                0x0000000000000000        0x0 /usr/lib/gcc/x86_64-linux-gnu/4.6.1/../../../x86_64-linux-gnu/crt1.o
 .rela.rodata._ZTV22TCMallocImplementation
                0x0000000000000000        0x0 /usr/lib/gcc/x86_64-linux-gnu/4.6.1/../../../x86_64-linux-gnu/crt1.o
 *(.rela.data .rela.data.* .rela.gnu.linkonce.d.*)
 .rela.data.rel.ro._ZTI12SysAllocator
                0x0000000000000000        0x0 /usr/lib/gcc/x86_64-linux-gnu/4.6.1/../../../x86_64-linux-gnu/crt1.o
 .rela.data.rel.ro._ZTI15MallocExtension
                0x0000000000000000        0x0 /usr/lib/gcc/x86_64-linux-gnu/4.6.1/../../../x86_64-linux-gnu/crt1.o
 .rela.data.rel.ro._ZTV12SysAllocator
                0x0000000000000000        0x0 /usr/lib/gcc/x86_64-linux-gnu/4.6.1/../../../x86_64-linux-gnu/crt1.o
 .rela.data.rel.ro._ZTV15MallocExtension
                0x0000000000000000        0x0 /usr/lib/gcc/x86_64-linux-gnu/4.6.1/../../../x86_64-linux-gnu/crt1.o
 .rela.data.rel.ro._ZTI16SbrkSysAllocator
                0x0000000000000000        0x0 /usr/lib/gcc/x86_64-linux-gnu/4.6.1/../../../x86_64-linux-gnu/crt1.o
 .rela.data.rel.ro._ZTI16MmapSysAllocator
                0x0000000000000000        0x0 /usr/lib/gcc/x86_64-linux-gnu/4.6.1/../../../x86_64-linux-gnu/crt1.o
 .rela.data.rel.ro._ZTI18DevMemSysAllocator
                0x0000000000000000        0x0 /usr/lib/gcc/x86_64-linux-gnu/4.6.1/../../../x86_64-linux-gnu/crt1.o
 .rela.data.rel.ro._ZTI19DefaultSysAllocator
                0x0000000000000000        0x0 /usr/lib/gcc/x86_64-linux-gnu/4.6.1/../../../x86_64-linux-gnu/crt1.o
 .rela.data.rel.ro._ZTV16SbrkSysAllocator
                0x0000000000000000        0x0 /usr/lib/gcc/x86_64-linux-gnu/4.6.1/../../../x86_64-linux-gnu/crt1.o
 .rela.data.rel.ro._ZTV16MmapSysAllocator
                0x0000000000000000        0x0 /usr/lib/gcc/x86_64-linux-gnu/4.6.1/../../../x86_64-linux-gnu/crt1.o
 .rela.data.rel.ro._ZTV18DevMemSysAllocator
                0x0000000000000000        0x0 /usr/lib/gcc/x86_64-linux-gnu/4.6.1/../../../x86_64-linux-gnu/crt1.o
 .rela.data.rel.ro._ZTV19DefaultSysAllocator
                0x0000000000000000        0x0 /usr/lib/gcc/x86_64-linux-gnu/4.6.1/../../../x86_64-linux-gnu/crt1.o
 .rela.data.DW.ref.__gxx_personality_v0
                0x0000000000000000        0x0 /usr/lib/gcc/x86_64-linux-gnu/4.6.1/../../../x86_64-linux-gnu/crt1.o
 *(.rela.tdata .rela.tdata.* .rela.gnu.linkonce.td.*)
 *(.rela.tbss .rela.tbss.* .rela.gnu.linkonce.tb.*)
 *(.rela.ctors)
 *(.rela.dtors)
 *(.rela.got)
 .rela.got      0x0000000000404f78      0x918 /usr/lib/gcc/x86_64-linux-gnu/4.6.1/../../../x86_64-linux-gnu/crt1.o
 *(.rela.bss .rela.bss.* .rela.gnu.linkonce.b.*)
 .rela.bss      0x0000000000405890      0x120 /usr/lib/gcc/x86_64-linux-gnu/4.6.1/../../../x86_64-linux-gnu/crt1.o
 *(.rela.ldata .rela.ldata.* .rela.gnu.linkonce.l.*)
 *(.rela.lbss .rela.lbss.* .rela.gnu.linkonce.lb.*)
 *(.rela.lrodata .rela.lrodata.* .rela.gnu.linkonce.lr.*)
 *(.rela.ifunc)
 .rela.eh_frame
                0x0000000000000000        0x0 /usr/lib/gcc/x86_64-linux-gnu/4.6.1/../../../x86_64-linux-gnu/crt1.o
 .rela.gcc_except_table
                0x0000000000000000        0x0 /usr/lib/gcc/x86_64-linux-gnu/4.6.1/../../../x86_64-linux-gnu/crt1.o
 .relagoogle_malloc
                0x0000000000000000        0x0 /usr/lib/gcc/x86_64-linux-gnu/4.6.1/../../../x86_64-linux-gnu/crt1.o

.rela.plt       0x00000000004059b0     0x15f0
 *(.rela.plt)
 .rela.plt      0x00000000004059b0     0x15f0 /usr/lib/gcc/x86_64-linux-gnu/4.6.1/../../../x86_64-linux-gnu/crt1.o
                0x0000000000406fa0                PROVIDE (__rela_iplt_start, .)
 *(.rela.iplt)
 .rela.iplt     0x0000000000000000        0x0 /usr/lib/gcc/x86_64-linux-gnu/4.6.1/../../../x86_64-linux-gnu/crt1.o
                0x0000000000406fa0                PROVIDE (__rela_iplt_end, .)

.init           0x0000000000406fa0       0x18
 *(.init)
 .init          0x0000000000406fa0        0x9 /usr/lib/gcc/x86_64-linux-gnu/4.6.1/../../../x86_64-linux-gnu/crti.o
                0x0000000000406fa0                _init
 .init          0x0000000000406fa9        0x5 /usr/lib/gcc/x86_64-linux-gnu/4.6.1/crtbegin.o
 .init          0x0000000000406fae        0x5 /usr/lib/gcc/x86_64-linux-gnu/4.6.1/crtend.o
 .init          0x0000000000406fb3        0x5 /usr/lib/gcc/x86_64-linux-gnu/4.6.1/../../../x86_64-linux-gnu/crtn.o

.plt            0x0000000000406fc0      0xeb0
 *(.plt)
 .plt           0x0000000000406fc0      0xeb0 /usr/lib/gcc/x86_64-linux-gnu/4.6.1/../../../x86_64-linux-gnu/crt1.o
                0x0000000000406fd0                sem_destroy@@GLIBC_2.2.5
                0x0000000000406fe0                __printf_chk@@GLIBC_2.3.4
                0x0000000000406ff0                pthread_cond_signal@@GLIBC_2.3.2
                0x0000000000407000                _ZNSo3putEc@@GLIBCXX_3.4
                0x0000000000407010                __errno_location@@GLIBC_2.2.5
                0x0000000000407020                pthread_cancel@@GLIBC_2.2.5
                0x0000000000407030                syscall@@GLIBC_2.2.5
                0x0000000000407040                isspace@@GLIBC_2.2.5
                0x0000000000407050                uname@@GLIBC_2.2.5
                0x0000000000407060                msync@@GLIBC_2.2.5
                0x0000000000407070                strtoll@@GLIBC_2.2.5
                0x0000000000407080                MPI_Init_thread
                0x0000000000407090                _ZSt29_Rb_tree_insert_and_rebalancebPSt18_Rb_tree_node_baseS0_RS_@@GLIBCXX_3.4
                0x00000000004070a0                MPI_Bcast
                0x00000000004070b0                EVP_cleanup@@OPENSSL_1.0.0
                0x00000000004070c0                _ZNSs6appendEPKcm@@GLIBCXX_3.4
                0x00000000004070d0                globfree@@GLIBC_2.2.5
                0x00000000004070e0                _ZNSs12_M_leak_hardEv@@GLIBCXX_3.4
                0x00000000004070f0                _ZNKSs4findEPKcmm@@GLIBCXX_3.4
                0x0000000000407100                strstr@@GLIBC_2.2.5
                0x0000000000407110                _ZNKSs7compareEPKc@@GLIBCXX_3.4
                0x0000000000407120                ERR_free_strings@@OPENSSL_1.0.0
                0x0000000000407130                pthread_mutex_trylock@@GLIBC_2.2.5
                0x0000000000407140                fork@@GLIBC_2.2.5
                0x0000000000407150                __vfprintf_chk@@GLIBC_2.3.4
                0x0000000000407160                dl_iterate_phdr@@GLIBC_2.2.5
                0x0000000000407170                execlp@@GLIBC_2.2.5
                0x0000000000407180                nanosleep@@GLIBC_2.2.5
                0x0000000000407190                erand48@@GLIBC_2.2.5
                0x00000000004071a0                MPI_Probe
                0x00000000004071b0                sigfillset@@GLIBC_2.2.5
                0x00000000004071c0                log@@GLIBC_2.2.5
                0x00000000004071d0                strerror@@GLIBC_2.2.5
                0x00000000004071e0                gzeof
                0x00000000004071f0                write@@GLIBC_2.2.5
                0x0000000000407200                MPI_Send
                0x0000000000407210                _ZSt17__throw_bad_allocv@@GLIBCXX_3.4
                0x0000000000407220                strchr@@GLIBC_2.2.5
                0x0000000000407230                _ZNSs14_M_replace_auxEmmmc@@GLIBCXX_3.4
                0x0000000000407240                ctime@@GLIBC_2.2.5
                0x0000000000407250                __cxa_begin_catch@@CXXABI_1.3
                0x0000000000407260                strspn@@GLIBC_2.2.5
                0x0000000000407270                asctime@@GLIBC_2.2.5
                0x0000000000407280                strlen@@GLIBC_2.2.5
                0x0000000000407290                pthread_mutexattr_destroy@@GLIBC_2.2.5
                0x00000000004072a0                memcmp@@GLIBC_2.2.5
                0x00000000004072b0                unlink@@GLIBC_2.2.5
                0x00000000004072c0                strncmp@@GLIBC_2.2.5
                0x00000000004072d0                sigprocmask@@GLIBC_2.2.5
                0x00000000004072e0                __cxa_allocate_exception@@CXXABI_1.3
                0x00000000004072f0                pthread_join@@GLIBC_2.2.5
                0x0000000000407300                getuid@@GLIBC_2.2.5
                0x0000000000407310                log10@@GLIBC_2.2.5
                0x0000000000407320                strncpy@@GLIBC_2.2.5
                0x0000000000407330                _ZSt20__throw_length_errorPKc@@GLIBCXX_3.4
                0x0000000000407340                memset@@GLIBC_2.2.5
                0x0000000000407350                abort@@GLIBC_2.2.5
                0x0000000000407360                getrusage@@GLIBC_2.2.5
                0x0000000000407370                MPI_Issend
                0x0000000000407380                _ZNSsC1ERKSs@@GLIBCXX_3.4
                0x0000000000407390                pthread_create@@GLIBC_2.2.5
                0x00000000004073a0                RSA_free@@OPENSSL_1.0.0
                0x00000000004073b0                geteuid@@GLIBC_2.2.5
                0x00000000004073c0                __sprintf_chk@@GLIBC_2.3.4
                0x00000000004073d0                _ZSt28_Rb_tree_rebalance_for_erasePSt18_Rb_tree_node_baseRS_@@GLIBCXX_3.4
                0x00000000004073e0                pthread_key_create@@GLIBC_2.2.5
                0x00000000004073f0                pthread_attr_setscope@@GLIBC_2.2.5
                0x0000000000407400                MD5@@OPENSSL_1.0.0
                0x0000000000407410                __snprintf_chk@@GLIBC_2.3.4
                0x0000000000407420                _ZSt18_Rb_tree_decrementPKSt18_Rb_tree_node_base@@GLIBCXX_3.4
                0x0000000000407430                RSA_new@@OPENSSL_1.0.0
                0x0000000000407440                _ZNSt9bad_allocD1Ev@@GLIBCXX_3.4
                0x0000000000407450                __cxa_guard_release@@CXXABI_1.3
                0x0000000000407460                sysconf@@GLIBC_2.2.5
                0x0000000000407470                __assert_fail@@GLIBC_2.2.5
                0x0000000000407480                pthread_attr_setstacksize@@GLIBC_2.2.5
                0x0000000000407490                mktime@@GLIBC_2.2.5
                0x00000000004074a0                _ZNSs6appendEmc@@GLIBCXX_3.4
                0x00000000004074b0                _ZNSo5flushEv@@GLIBCXX_3.4
                0x00000000004074c0                _ZSt18_Rb_tree_incrementPSt18_Rb_tree_node_base@@GLIBCXX_3.4
                0x00000000004074d0                _ZSt19__throw_logic_errorPKc@@GLIBCXX_3.4
                0x00000000004074e0                sscanf@@GLIBC_2.2.5
                0x00000000004074f0                MPI_Barrier
                0x0000000000407500                open@@GLIBC_2.2.5
                0x0000000000407510                localtime@@GLIBC_2.2.5
                0x0000000000407520                sleep@@GLIBC_2.2.5
                0x0000000000407530                pthread_mutex_unlock@@GLIBC_2.2.5
                0x0000000000407540                sem_post@@GLIBC_2.2.5
                0x0000000000407550                __sbrk@@GLIBC_2.2.5
                0x0000000000407560                strtod@@GLIBC_2.2.5
                0x0000000000407570                MPI_Finalize
                0x0000000000407580                _ZNKSs4findEcm@@GLIBCXX_3.4
                0x0000000000407590                sqrt@@GLIBC_2.2.5
                0x00000000004075a0                _ZNSs7reserveEm@@GLIBCXX_3.4
                0x00000000004075b0                _ZNSs4_Rep10_M_destroyERKSaIcE@@GLIBCXX_3.4
                0x00000000004075c0                __register_atfork@@GLIBC_2.3.2
                0x00000000004075d0                MPI_Recv
                0x00000000004075e0                __vsnprintf_chk@@GLIBC_2.3.4
                0x00000000004075f0                __memmove_chk@@GLIBC_2.3.4
                0x0000000000407600                perror@@GLIBC_2.2.5
                0x0000000000407610                MPI_Type_extent
                0x0000000000407620                __strcpy_chk@@GLIBC_2.3.4
                0x0000000000407630                socketpair@@GLIBC_2.2.5
                0x0000000000407640                __cxa_atexit@@GLIBC_2.2.5
                0x0000000000407650                pthread_self@@GLIBC_2.2.5
                0x0000000000407660                pow@@GLIBC_2.2.5
                0x0000000000407670                time@@GLIBC_2.2.5
                0x0000000000407680                dup2@@GLIBC_2.2.5
                0x0000000000407690                strcpy@@GLIBC_2.2.5
                0x00000000004076a0                __strcat_chk@@GLIBC_2.3.4
                0x00000000004076b0                _ZNSs6resizeEmc@@GLIBCXX_3.4
                0x00000000004076c0                fclose@@GLIBC_2.2.5
                0x00000000004076d0                __xstat@@GLIBC_2.2.5
                0x00000000004076e0                BN_hex2bn@@OPENSSL_1.0.0
                0x00000000004076f0                pthread_detach@@GLIBC_2.2.5
                0x0000000000407700                _ZSt18_Rb_tree_decrementPSt18_Rb_tree_node_base@@GLIBCXX_3.4
                0x0000000000407710                RSA_public_decrypt@@OPENSSL_1.0.0
                0x0000000000407720                MPI_Abort
                0x0000000000407730                __fxstat@@GLIBC_2.2.5
                0x0000000000407740                CRYPTO_cleanup_all_ex_data@@OPENSSL_1.0.0
                0x0000000000407750                _ZNSs6appendERKSs@@GLIBCXX_3.4
                0x0000000000407760                strcasecmp@@GLIBC_2.2.5
                0x0000000000407770                strrchr@@GLIBC_2.2.5
                0x0000000000407780                memchr@@GLIBC_2.2.5
                0x0000000000407790                __stack_chk_fail@@GLIBC_2.4
                0x00000000004077a0                fputs@@GLIBC_2.2.5
                0x00000000004077b0                sem_wait@@GLIBC_2.2.5
                0x00000000004077c0                _ZNSsC1EPKcRKSaIcE@@GLIBCXX_3.4
                0x00000000004077d0                _ZSt16__ostream_insertIcSt11char_traitsIcEERSt13basic_ostreamIT_T0_ES6_PKS3_l@@GLIBCXX_3.4.9
                0x00000000004077e0                _ZNKSt5ctypeIcE13_M_widen_initEv@@GLIBCXX_3.4.11
                0x00000000004077f0                regcomp@@GLIBC_2.2.5
                0x0000000000407800                _ZSt18_Rb_tree_incrementPKSt18_Rb_tree_node_base@@GLIBCXX_3.4
                0x0000000000407810                pthread_mutex_destroy@@GLIBC_2.2.5
                0x0000000000407820                MPI_Comm_size
                0x0000000000407830                fopen@@GLIBC_2.2.5
                0x0000000000407840                _ZNSs6assignEPKcm@@GLIBCXX_3.4
                0x0000000000407850                signal@@GLIBC_2.2.5
                0x0000000000407860                madvise@@GLIBC_2.2.5
                0x0000000000407870                pthread_cond_init@@GLIBC_2.3.2
                0x0000000000407880                exit@@GLIBC_2.2.5
                0x0000000000407890                pthread_attr_init@@GLIBC_2.2.5
                0x00000000004078a0                getenv@@GLIBC_2.2.5
                0x00000000004078b0                regexec@@GLIBC_2.3.4
                0x00000000004078c0                wait@@GLIBC_2.2.5
                0x00000000004078d0                fputc@@GLIBC_2.2.5
                0x00000000004078e0                strncasecmp@@GLIBC_2.2.5
                0x00000000004078f0                _ZSt16__throw_bad_castv@@GLIBCXX_3.4
                0x0000000000407900                __cxa_call_unexpected@@CXXABI_1.3
                0x0000000000407910                confstr@@GLIBC_2.2.5
                0x0000000000407920                prctl@@GLIBC_2.2.5
                0x0000000000407930                _ZNSs6assignERKSs@@GLIBCXX_3.4
                0x0000000000407940                sysinfo@@GLIBC_2.2.5
                0x0000000000407950                pthread_attr_setdetachstate@@GLIBC_2.2.5
                0x0000000000407960                exp@@GLIBC_2.2.5
                0x0000000000407970                glob@@GLIBC_2.2.5
                0x0000000000407980                MPI_Waitany
                0x0000000000407990                strtoull@@GLIBC_2.2.5
                0x00000000004079a0                _ZNSs9_M_mutateEmmm@@GLIBCXX_3.4
                0x00000000004079b0                MPI_Irecv
                0x00000000004079c0                _ZSt15set_new_handlerPFvvE@@GLIBCXX_3.4
                0x00000000004079d0                unsetenv@@GLIBC_2.2.5
                0x00000000004079e0                pthread_mutexattr_init@@GLIBC_2.2.5
                0x00000000004079f0                _ZNKSs5rfindEcm@@GLIBCXX_3.4
                0x0000000000407a00                pthread_getspecific@@GLIBC_2.2.5
                0x0000000000407a10                strcmp@@GLIBC_2.2.5
                0x0000000000407a20                strtol@@GLIBC_2.2.5
                0x0000000000407a30                MPI_Comm_rank
                0x0000000000407a40                MPI_Get_count
                0x0000000000407a50                read@@GLIBC_2.2.5
                0x0000000000407a60                _ZSt20__throw_out_of_rangePKc@@GLIBCXX_3.4
                0x0000000000407a70                tolower@@GLIBC_2.2.5
                0x0000000000407a80                __cxa_rethrow@@CXXABI_1.3
                0x0000000000407a90                getpid@@GLIBC_2.2.5
                0x0000000000407aa0                pthread_mutex_lock@@GLIBC_2.2.5
                0x0000000000407ab0                iscntrl@@GLIBC_2.2.5
                0x0000000000407ac0                gzopen
                0x0000000000407ad0                backtrace_symbols@@GLIBC_2.2.5
                0x0000000000407ae0                pthread_mutex_init@@GLIBC_2.2.5
                0x0000000000407af0                fread@@GLIBC_2.2.5
                0x0000000000407b00                setenv@@GLIBC_2.2.5
                0x0000000000407b10                poll@@GLIBC_2.2.5
                0x0000000000407b20                pthread_cond_wait@@GLIBC_2.3.2
                0x0000000000407b30                _ZNSt8ios_base4InitC1Ev@@GLIBCXX_3.4
                0x0000000000407b40                puts@@GLIBC_2.2.5
                0x0000000000407b50                feof@@GLIBC_2.2.5
                0x0000000000407b60                fnmatch@@GLIBC_2.2.5
                0x0000000000407b70                atoi@@GLIBC_2.2.5
                0x0000000000407b80                _ZNSsC1ERKSsmm@@GLIBCXX_3.4
                0x0000000000407b90                fgetc@@GLIBC_2.2.5
                0x0000000000407ba0                _ZNSsD1Ev@@GLIBCXX_3.4
                0x0000000000407bb0                fgets@@GLIBC_2.2.5
                0x0000000000407bc0                BZ2_bzReadOpen
                0x0000000000407bd0                BZ2_bzRead
                0x0000000000407be0                snprintf@@GLIBC_2.2.5
                0x0000000000407bf0                pthread_setaffinity_np@@GLIBC_2.3.4
                0x0000000000407c00                ENGINE_cleanup@@OPENSSL_1.0.0
                0x0000000000407c10                gettimeofday@@GLIBC_2.2.5
                0x0000000000407c20                memmove@@GLIBC_2.2.5
                0x0000000000407c30                _exit@@GLIBC_2.2.5
                0x0000000000407c40                __cxa_end_catch@@CXXABI_1.3
                0x0000000000407c50                __fprintf_chk@@GLIBC_2.3.4
                0x0000000000407c60                pthread_once@@GLIBC_2.2.5
                0x0000000000407c70                __gxx_personality_v0@@CXXABI_1.3
                0x0000000000407c80                access@@GLIBC_2.2.5
                0x0000000000407c90                __tls_get_addr@@GLIBC_2.3
                0x0000000000407ca0                floor@@GLIBC_2.2.5
                0x0000000000407cb0                __powidf2@@GCC_4.0.0
                0x0000000000407cc0                gzclose
                0x0000000000407cd0                gzgets
                0x0000000000407ce0                __cxa_throw@@CXXABI_1.3
                0x0000000000407cf0                memcpy@@GLIBC_2.2.5
                0x0000000000407d00                sem_init@@GLIBC_2.2.5
                0x0000000000407d10                _Unwind_Resume@@GCC_3.0
                0x0000000000407d20                pthread_exit@@GLIBC_2.2.5
                0x0000000000407d30                strcat@@GLIBC_2.2.5
                0x0000000000407d40                getpagesize@@GLIBC_2.2.5
                0x0000000000407d50                nrand48@@GLIBC_2.2.5
                0x0000000000407d60                __cxa_guard_acquire@@CXXABI_1.3
                0x0000000000407d70                pthread_setspecific@@GLIBC_2.2.5
                0x0000000000407d80                _ZNKSs7compareEmmPKc@@GLIBCXX_3.4
                0x0000000000407d90                toupper@@GLIBC_2.2.5
                0x0000000000407da0                _ZNKSs17find_first_not_ofEPKcmm@@GLIBCXX_3.4
                0x0000000000407db0                lseek@@GLIBC_2.2.5
                0x0000000000407dc0                __libc_start_main@@GLIBC_2.2.5
                0x0000000000407dd0                __cxa_pure_virtual@@CXXABI_1.3
                0x0000000000407de0                qsort@@GLIBC_2.2.5
                0x0000000000407df0                _ZNKSs13find_first_ofEPKcmm@@GLIBCXX_3.4
                0x0000000000407e00                BZ2_bzReadClose
                0x0000000000407e10                pthread_cond_destroy@@GLIBC_2.3.2
                0x0000000000407e20                fwrite@@GLIBC_2.2.5
                0x0000000000407e30                close@@GLIBC_2.2.5
                0x0000000000407e40                RSA_size@@OPENSSL_1.0.0
                0x0000000000407e50                logf@@GLIBC_2.2.5
                0x0000000000407e60                _ZNSt8ios_base4InitD1Ev@@GLIBCXX_3.4
 *(.iplt)
 .iplt          0x0000000000000000        0x0 /usr/lib/gcc/x86_64-linux-gnu/4.6.1/../../../x86_64-linux-gnu/crt1.o

.text           0x0000000000407e70    0x62778
 *(.text.unlikely .text.*_unlikely)
 .text.unlikely
                0x0000000000407e70       0x1a novoalignCSMPI.a(nawmCS.o)
 .text.unlikely
                0x0000000000407e8a      0x3c1 ./tcmalloc/libtcmalloc.a(libtcmalloc_la-tcmalloc.o)
 *fill*         0x000000000040824b        0x1 90909090
 .text.unlikely
                0x000000000040824c       0x1c ./tcmalloc/libtcmalloc.a(libtcmalloc_la-heap-checker.o)
 .text.unlikely
                0x0000000000408268       0x47 ./tcmalloc/libtcmalloc.a(libtcmalloc_internal_la-low_level_alloc.o)
 *fill*         0x00000000004082af        0x1 90909090
 .text.unlikely
                0x00000000004082b0       0x23 ./tcmalloc/libtcmalloc.a(libtcmalloc_internal_la-memory_region_map.o)
 *(.text.exit .text.exit.*)
 *(.text.startup .text.startup.*)
 *fill*         0x00000000004082d3        0xd 90909090
 .text.startup  0x00000000004082e0      0x2f2 novoalignCSMPI.a(novoalignMPI_main.o)
                0x00000000004082e0                main
 *fill*         0x00000000004085d2        0xe 90909090
 .text.startup  0x00000000004085e0       0x26 novoalignCSMPI.a(fragdist.o)
 *fill*         0x0000000000408606        0xa 90909090
 .text.startup  0x0000000000408610       0x26 novoalignCSMPI.a(indelstats.o)
 *fill*         0x0000000000408636        0xa 90909090
 .text.startup  0x0000000000408640       0x26 novoalignCSMPI.a(ksindex.o)
 *fill*         0x0000000000408666        0xa 90909090
 .text.startup  0x0000000000408670       0x26 novoalignCSMPI.a(novoalignmpi.o)
 *fill*         0x0000000000408696        0xa 90909090
 .text.startup  0x00000000004086a0       0x26 novoalignCSMPI.a(novoparam.o)
 *fill*         0x00000000004086c6        0xa 90909090
 .text.startup  0x00000000004086d0       0x26 novoalignCSMPI.a(prbcalibrateCS.o)
 *fill*         0x00000000004086f6        0xa 90909090
 .text.startup  0x0000000000408700       0x26 novoalignCSMPI.a(prbcalibrateMPI.o)
 *fill*         0x0000000000408726        0xa 90909090
 .text.startup  0x0000000000408730       0x12 novoalignCSMPI.a(qualconvert.o)
 *fill*         0x0000000000408742        0xe 90909090
 .text.startup  0x0000000000408750       0x26 novoalignCSMPI.a(queryfolder.o)
 *fill*         0x0000000000408776        0xa 90909090
 .text.startup  0x0000000000408780       0x26 novoalignCSMPI.a(queryformatCS.o)
 *fill*         0x00000000004087a6        0xa 90909090
 .text.startup  0x00000000004087b0       0x26 novoalignCSMPI.a(queryreader.o)
 *fill*         0x00000000004087d6        0xa 90909090
 .text.startup  0x00000000004087e0       0x26 novoalignCSMPI.a(queryreaderCS.o)
 *fill*         0x0000000000408806        0xa 90909090
 .text.startup  0x0000000000408810       0x26 novoalignCSMPI.a(reporter.o)
 *fill*         0x0000000000408836        0xa 90909090
 .text.startup  0x0000000000408840       0x26 novoalignCSMPI.a(rptNative.o)
 *fill*         0x0000000000408866        0xa 90909090
 .text.startup  0x0000000000408870       0x26 novoalignCSMPI.a(rptSAM.o)
 *fill*         0x0000000000408896        0xa 90909090
 .text.startup  0x00000000004088a0       0x26 novoalignCSMPI.a(TThread.o)
 *fill*         0x00000000004088c6        0xa 90909090
 .text.startup  0x00000000004088d0       0x26 novoalignCSMPI.a(TThreadPool.o)
 *fill*         0x00000000004088f6        0xa 90909090
 .text.startup  0x0000000000408900       0x26 novoalignCSMPI.a(TTimer.o)
 *fill*         0x0000000000408926        0xa 90909090
 .text.startup  0x0000000000408930       0x26 novoalignCSMPI.a(wmsearch.o)
 *fill*         0x0000000000408956        0xa 90909090
 .text.startup  0x0000000000408960       0x26 novoalignCSMPI.a(filehandle.o)
 *fill*         0x0000000000408986        0xa 90909090
 .text.startup  0x0000000000408990       0x26 novoalignCSMPI.a(findamateCS.o)
 *fill*         0x00000000004089b6        0xa 90909090
 .text.startup  0x00000000004089c0       0x26 novoalignCSMPI.a(fragdistMPI.o)
 *fill*         0x00000000004089e6        0xa 90909090
 .text.startup  0x00000000004089f0        0xa novoalignCSMPI.a(iubcodes.o)
 *fill*         0x00000000004089fa        0x6 90909090
 .text.startup  0x0000000000408a00       0x26 novoalignCSMPI.a(keygenCS.o)
 *fill*         0x0000000000408a26        0xa 90909090
 .text.startup  0x0000000000408a30       0x26 novoalignCSMPI.a(nawmCS.o)
 *fill*         0x0000000000408a56        0xa 90909090
 .text.startup  0x0000000000408a60       0x26 novoalignCSMPI.a(needleCS.o)
 *fill*         0x0000000000408a86        0xa 90909090
 .text.startup  0x0000000000408a90       0x26 novoalignCSMPI.a(qryopt.o)
 *fill*         0x0000000000408ab6        0xa 90909090
 .text.startup  0x0000000000408ac0       0x26 novoalignCSMPI.a(shortnwCS.o)
 *fill*         0x0000000000408ae6        0xa 90909090
 .text.startup  0x0000000000408af0        0xa novoalignCSMPI.a(cscodes.o)
 *fill*         0x0000000000408afa        0x6 90909090
 .text.startup  0x0000000000408b00       0x7d ./tcmalloc/libtcmalloc.a(libtcmalloc_la-tcmalloc.o)
 *fill*         0x0000000000408b7d        0x3 90909090
 .text.startup  0x0000000000408b80      0x123 ./tcmalloc/libtcmalloc.a(atomicops-internals-x86.o)
 *fill*         0x0000000000408ca3        0xd 90909090
 .text.startup  0x0000000000408cb0       0x7e ./tcmalloc/libtcmalloc.a(libtcmalloc_internal_la-page_heap.o)
 *fill*         0x0000000000408d2e        0x2 90909090
 .text.startup  0x0000000000408d30       0x44 ./tcmalloc/libtcmalloc.a(libtcmalloc_internal_la-sampler.o)
 *fill*         0x0000000000408d74        0xc 90909090
 .text.startup  0x0000000000408d80       0x64 ./tcmalloc/libtcmalloc.a(libtcmalloc_internal_la-static_vars.o)
 *fill*         0x0000000000408de4        0xc 90909090
 .text.startup  0x0000000000408df0      0x141 ./tcmalloc/libtcmalloc.a(libtcmalloc_internal_la-system-alloc.o)
 *fill*         0x0000000000408f31        0xf 90909090
 .text.startup  0x0000000000408f40       0x47 ./tcmalloc/libtcmalloc.a(libtcmalloc_internal_la-thread_cache.o)
 *fill*         0x0000000000408f87        0x9 90909090
 .text.startup  0x0000000000408f90       0x42 ./tcmalloc/libtcmalloc.a(logging.o)
 *fill*         0x0000000000408fd2        0xe 90909090
 .text.startup  0x0000000000408fe0       0x1d ./tcmalloc/libtcmalloc.a(spinlock.o)
 *fill*         0x0000000000408ffd        0x3 90909090
 .text.startup  0x0000000000409000       0x95 ./tcmalloc/libtcmalloc.a(spinlock_internal.o)
 *fill*         0x0000000000409095        0xb 90909090
 .text.startup  0x00000000004090a0      0x32d ./tcmalloc/libtcmalloc.a(libtcmalloc_la-heap-checker.o)
 *fill*         0x00000000004093cd        0x3 90909090
 .text.startup  0x00000000004093d0       0x44 ./tcmalloc/libtcmalloc.a(libtcmalloc_la-heap-checker-bcad.o)
 *fill*         0x0000000000409414        0xc 90909090
 .text.startup  0x0000000000409420       0x8a ./tcmalloc/libtcmalloc.a(libtcmalloc_internal_la-heap-profile-table.o)
 *fill*         0x00000000004094aa        0x6 90909090
 .text.startup  0x00000000004094b0        0xf ./tcmalloc/libtcmalloc.a(libtcmalloc_internal_la-memory_region_map.o)
 *fill*         0x00000000004094bf        0x1 90909090
 .text.startup  0x00000000004094c0       0x7d ./tcmalloc/libtcmalloc.a(libtcmalloc_internal_la-symbolize.o)
 *(.text.hot .text.hot.*)
 *(.text .stub .text.* .gnu.linkonce.t.*)
 *fill*         0x000000000040953d        0x3 90909090
 .text          0x0000000000409540       0x2c /usr/lib/gcc/x86_64-linux-gnu/4.6.1/../../../x86_64-linux-gnu/crt1.o
                0x0000000000409540                _start
 .text          0x000000000040956c       0x17 /usr/lib/gcc/x86_64-linux-gnu/4.6.1/../../../x86_64-linux-gnu/crti.o
 *fill*         0x0000000000409583        0xd 90909090
 .text          0x0000000000409590       0x92 /usr/lib/gcc/x86_64-linux-gnu/4.6.1/crtbegin.o
 *fill*         0x0000000000409622        0xe 90909090
 .text          0x0000000000409630      0x98a mpidriver.o
                0x0000000000409630                _ZN10mpi_driver11init_masterEiPPc
                0x0000000000409640                _ZN10mpi_driver13final_resultsEv
                0x0000000000409650                _ZN10mpi_driver10init_slaveEiPPc
                0x0000000000409660                _ZN10mpi_driver9eof_slaveEv
                0x0000000000409670                _ZN10mpi_driver11final_slaveEv
                0x0000000000409680                _ZN10mpi_driverC1Ev
                0x0000000000409680                _ZN10mpi_driverC2Ev
                0x0000000000409690                _ZN10mpi_driverD2Ev
                0x0000000000409690                _ZN10mpi_driverD1Ev
                0x00000000004096a0                _ZN10mpi_driver10run_masterEiPPc
                0x0000000000409d40                _ZN10mpi_driver10run_slavesEiPPc
                0x0000000000409df0                _ZN10mpi_driver7run_mpiEiPPc
                0x0000000000409ef0                _Z11NV_MPI_SendPvi11NV_Datatypeii
                0x0000000000409f10                _Z11NV_MPI_RecvPvi11NV_Datatype
                0x0000000000409f50                _Z13NV_MPI_MsgLeni11NV_Datatype
                0x0000000000409f80                _Z3Diev
                0x0000000000409f90                _Z12NV_MPI_BcastPvi11NV_Datatype
                0x0000000000409fb0                _Z7Barrierv
 *fill*         0x0000000000409fba        0x6 90909090
 .text._ZN10mpi_driver9syncPointEv
                0x0000000000409fc0        0x3 mpidriver.o
                0x0000000000409fc0                _ZN10mpi_driver9syncPointEv
 *fill*         0x0000000000409fc3        0xd 90909090
 .text._ZN10mpi_driver6syncedEv
                0x0000000000409fd0        0x2 mpidriver.o
                0x0000000000409fd0                _ZN10mpi_driver6syncedEv
 *fill*         0x0000000000409fd2        0xe 90909090
 .text          0x0000000000409fe0       0xac trace.o
                0x0000000000409fe0                _Z11print_tracev
                0x000000000040a070                _Z11cleanCryptov
 *fill*         0x000000000040a08c        0x4 90909090
 .text          0x000000000040a090       0x2b novoalignCSMPI.a(novoalignMPI_main.o)
                0x000000000040a090                leave
 *fill*         0x000000000040a0bb        0x5 90909090
 .text._ZN6TMutexD2Ev
                0x000000000040a0c0       0x13 novoalignCSMPI.a(novoalignMPI_main.o)
                0x000000000040a0c0                _ZN6TMutexD1Ev
                0x000000000040a0c0                _ZN6TMutexD2Ev
 *fill*         0x000000000040a0d3        0xd 90909090
 .text._ZN10alignstats6reportEP8_IO_FILE
                0x000000000040a0e0      0x1b0 novoalignCSMPI.a(novoalignMPI_main.o)
                0x000000000040a0e0                _ZN10alignstats6reportEP8_IO_FILE
 .text._ZN6TMutexC2Ev
                0x000000000040a290       0x36 novoalignCSMPI.a(novoalignMPI_main.o)
                0x000000000040a290                _ZN6TMutexC2Ev
                0x000000000040a290                _ZN6TMutexC1Ev
 *fill*         0x000000000040a2c6        0xa 90909090
 .text._ZN8fragdistD2Ev
                0x000000000040a2d0       0x67 novoalignCSMPI.a(novoalignMPI_main.o)
                0x000000000040a2d0                _ZN8fragdistD2Ev
                0x000000000040a2d0                _ZN8fragdistD1Ev
 *fill*         0x000000000040a337        0x9 90909090
 .text._ZN9novoparamUt0_D2Ev
                0x000000000040a340      0x117 novoalignCSMPI.a(novoalignMPI_main.o)
                0x000000000040a340                _ZN9novoparamUt0_D2Ev
                0x000000000040a340                _ZN9novoparamUt0_D1Ev
 *fill*         0x000000000040a457        0x9 90909090
 .text._ZN9novoparamD2Ev
                0x000000000040a460      0x827 novoalignCSMPI.a(novoalignMPI_main.o)
                0x000000000040a460                _ZN9novoparamD2Ev
                0x000000000040a460                _ZN9novoparamD1Ev
 *fill*         0x000000000040ac87        0x9 90909090
 .text._ZN11fragdistMPIC2Ev
                0x000000000040ac90       0x96 novoalignCSMPI.a(novoalignMPI_main.o)
                0x000000000040ac90                _ZN11fragdistMPIC1Ev
                0x000000000040ac90                _ZN11fragdistMPIC2Ev
 *fill*         0x000000000040ad26        0xa 90909090
 .text          0x000000000040ad30      0x9c8 novoalignCSMPI.a(fragdist.o)
                0x000000000040ad30                _ZN8fragdist11addfragmentEi
                0x000000000040ad60                _ZN8fragdist9calcstatsEv
                0x000000000040ae50                _ZN8fragdist15reverseAndScaleEv
                0x000000000040aed0                _ZN8fragdist15recalcpenaltiesEv
                0x000000000040b1e0                _ZN8fragdist7setdistEii
                0x000000000040b250                _ZN8fragdist7setdistEffbii
                0x000000000040b540                _ZN8fragdist5resetEv
                0x000000000040b570                _ZN8fragdist5printEP8_IO_FILE
 *fill*         0x000000000040b6f8        0x8 90909090
 .text          0x000000000040b700     0x118c novoalignCSMPI.a(indelstats.o)
                0x000000000040b700                _ZN10indelStats9extractxyEPKc
                0x000000000040b8f0                _ZN10indelStats12addalignmentEP8reporter
                0x000000000040c100                _ZN10indelStats4loadERSs
                0x000000000040c110                _ZN10indelStats4saveERSsS0_
                0x000000000040c700                _ZN10indelStats8mpi_sendEi
                0x000000000040c720                _ZN10indelStats8mpi_recvEi
 *fill*         0x000000000040c88c        0x4 90909090
 .text          0x000000000040c890      0xe29 novoalignCSMPI.a(ksgroups.o)
                0x000000000040d0b0                _ZN7ksgroupD2Ev
                0x000000000040d0b0                _ZN7ksgroupD1Ev
                0x000000000040d1a0                _ZN7ksgroup10group_nameEi
                0x000000000040d1d0                _ZN7ksgroupC1EPKcR7ksindex
                0x000000000040d1d0                _ZN7ksgroupC2EPKcR7ksindex
 *fill*         0x000000000040d6b9        0x7 90909090
 .text._Z12grp_lessnameRK8seqgroupS1_
                0x000000000040d6c0       0x52 novoalignCSMPI.a(ksgroups.o)
                0x000000000040d6c0                _Z12grp_lessnameRK8seqgroupS1_
 *fill*         0x000000000040d712        0xe 90909090
 .text._ZNSt6vectorI8seqgroupSaIS0_EE13_M_insert_auxEN9__gnu_cxx17__normal_iteratorIPS0_S2_EERKS0_
                0x000000000040d720      0x25e novoalignCSMPI.a(ksgroups.o)
                0x000000000040d720                _ZNSt6vectorI8seqgroupSaIS0_EE13_M_insert_auxEN9__gnu_cxx17__normal_iteratorIPS0_S2_EERKS0_
 *fill*         0x000000000040d97e        0x2 90909090
 .text._ZSt16__insertion_sortIN9__gnu_cxx17__normal_iteratorIP8seqgroupSt6vectorIS2_SaIS2_EEEEEvT_S8_
                0x000000000040d980      0x15c novoalignCSMPI.a(ksgroups.o)
                0x000000000040d980                _ZSt16__insertion_sortIN9__gnu_cxx17__normal_iteratorIP8seqgroupSt6vectorIS2_SaIS2_EEEEEvT_S8_
 *fill*         0x000000000040dadc        0x4 90909090
 .text._ZSt19__move_median_firstIN9__gnu_cxx17__normal_iteratorIP8seqgroupSt6vectorIS2_SaIS2_EEEEEvT_S8_S8_
                0x000000000040dae0       0xee novoalignCSMPI.a(ksgroups.o)
                0x000000000040dae0                _ZSt19__move_median_firstIN9__gnu_cxx17__normal_iteratorIP8seqgroupSt6vectorIS2_SaIS2_EEEEEvT_S8_S8_
 *fill*         0x000000000040dbce        0x2 90909090
 .text._ZSt13__adjust_heapIN9__gnu_cxx17__normal_iteratorIP8seqgroupSt6vectorIS2_SaIS2_EEEElS2_EvT_T0_S9_T1_
                0x000000000040dbd0      0x198 novoalignCSMPI.a(ksgroups.o)
                0x000000000040dbd0                _ZSt13__adjust_heapIN9__gnu_cxx17__normal_iteratorIP8seqgroupSt6vectorIS2_SaIS2_EEEElS2_EvT_T0_S9_T1_
 *fill*         0x000000000040dd68        0x8 90909090
 .text._ZSt13__heap_selectIN9__gnu_cxx17__normal_iteratorIP8seqgroupSt6vectorIS2_SaIS2_EEEEEvT_S8_S8_
                0x000000000040dd70      0x133 novoalignCSMPI.a(ksgroups.o)
                0x000000000040dd70                _ZSt13__heap_selectIN9__gnu_cxx17__normal_iteratorIP8seqgroupSt6vectorIS2_SaIS2_EEEEEvT_S8_S8_
 *fill*         0x000000000040dea3        0xd 90909090
 .text._ZSt16__introsort_loopIN9__gnu_cxx17__normal_iteratorIP8seqgroupSt6vectorIS2_SaIS2_EEEElEvT_S8_T0_
                0x000000000040deb0      0x1bf novoalignCSMPI.a(ksgroups.o)
                0x000000000040deb0                _ZSt16__introsort_loopIN9__gnu_cxx17__normal_iteratorIP8seqgroupSt6vectorIS2_SaIS2_EEEElEvT_S8_T0_
 *fill*         0x000000000040e06f        0x1 90909090
 .text          0x000000000040e070     0x162d novoalignCSMPI.a(ksindex.o)
                0x000000000040e070                _ZN7ksindexC2Ev
                0x000000000040e070                _ZN7ksindexC1Ev
                0x000000000040e1e0                _ZN7ksindexD2Ev
                0x000000000040e1e0                _ZN7ksindexD1Ev
                0x000000000040e220                _ZNK7ksindex15GetRefSequence4EmPhi
                0x000000000040e2d0                _ZNK7ksindex16GetRefSequencenaEmPhi
                0x000000000040e3a0                _ZNK7ksindex15GetRefSequence6ElPDv2_xim
                0x000000000040e3a0                _ZNK7ksindex15GetRefSequence6ElPU8__vectorxim
                0x000000000040e560                _ZNK7ksindex17GetRefSequence6rcElPU8__vectorxim
                0x000000000040e560                _ZNK7ksindex17GetRefSequence6rcElPDv2_xim
                0x000000000040e780                _ZN7ksindex3ramEv
                0x000000000040e7a0                _ZN7ksindex9usableramEv
                0x000000000040e840                _ZN9seqheader6headerER7ksindex
                0x000000000040e850                _ZN9seqheader6headerERSsR7ksindex
                0x000000000040e8b0                _ZN7ksindex11buildhdridxEv
                0x000000000040e920                _ZN7ksindex9getseqnumEm
                0x000000000040e9c0                _ZNK7ksindex7totsizeEv
                0x000000000040ea40                _ZN7ksindex7setptrsEv
                0x000000000040eb90                _ZN7ksindex4loadEPKcS1_bbbb
                0x000000000040f3d0                _ZN7ksindex5touchEv
                0x000000000040f410                _ZN7ksindex6chksumEv
                0x000000000040f500                _ZN7ksindex8findNameEPci
 *fill*         0x000000000040f69d        0x3 90909090
 .text          0x000000000040f6a0     0x4db1 novoalignCSMPI.a(novoalignmpi.o)
                0x000000000040f6a0                _ZN12novoalignmpi10max_lengthEv
                0x000000000040f6b0                _ZN12novoalignmpi9syncPointEv
                0x000000000040f6e0                _ZN12novoalignmpi6syncedEv
                0x000000000040f8f0                _ZN12novoalignmpi22master_process_messageEiPcii
                0x000000000040f9b0                _ZN12novoalignmpi3eofEv
                0x000000000040f9f0                _ZN12novoalignmpi12next_messageEiPciRj
                0x000000000040fea0                _ZN12novoalignmpi11final_slaveEv
                0x000000000040ffc0                _ZN12novoalignmpi11init_masterEiPPc
                0x0000000000410bd0                _ZN12novoalignmpiD1Ev
                0x0000000000410bd0                _ZN12novoalignmpiD2Ev
                0x0000000000410c80                _ZN12novoalignmpi10MPI_SendSzEPvi11NV_Datatype7NV_Tagsi
                0x0000000000410d40                _ZN12novoalignmpi11append_idleEP15novoalign_slave
                0x0000000000410de0                _ZN12novoalignmpi8get_idleEv
                0x0000000000410e90                _ZN12novoalignmpi12sendcountersEv
                0x0000000000411270                _ZN12novoalignmpi9eof_slaveEv
                0x00000000004112a0                _ZN12novoalignmpi11syncThreadsEv
                0x00000000004112d0                _ZN12novoalignmpi15process_messageEii
                0x0000000000411570                _ZN15novoalign_slave15recv_buffer_lenEv
                0x0000000000411580                _ZN15novoalign_slave10init_slaveEv
                0x0000000000412080                _ZN15novoalign_slave8set_nawmE6t_sidePcS1_S1_
                0x00000000004121c0                _ZN15novoalign_slave3runEPv
                0x0000000000412350                _ZN8mpistats10send_statsEv
                0x00000000004123d0                _ZN8mpistats13process_statsEv
                0x0000000000412460                _ZN12novoalignmpi13final_resultsEv
                0x0000000000412a10                _ZN12novoalignmpi10init_slaveEiPPc
 *fill*         0x0000000000414451        0xf 90909090
 .text._ZN8reporter7newpairE6t_side
                0x0000000000414460       0x19 novoalignCSMPI.a(novoalignmpi.o)
                0x0000000000414460                _ZN8reporter7newpairE6t_side
 *fill*         0x0000000000414479        0x7 90909090
 .text._ZN8reporter8filetypeEPKc
                0x0000000000414480       0x18 novoalignCSMPI.a(novoalignmpi.o)
                0x0000000000414480                _ZN8reporter8filetypeEPKc
 *fill*         0x0000000000414498        0x8 90909090
 .text._ZN8reporter6dbinfoEv
                0x00000000004144a0       0xa6 novoalignCSMPI.a(novoalignmpi.o)
                0x00000000004144a0                _ZN8reporter6dbinfoEv
 *fill*         0x0000000000414546        0xa 90909090
 .text._ZN8reporter5startEiPPciiPKc
                0x0000000000414550      0x16c novoalignCSMPI.a(novoalignmpi.o)
                0x0000000000414550                _ZN8reporter5startEiPPciiPKc
 *fill*         0x00000000004146bc        0x4 90909090
 .text._ZN9findamateD2Ev
                0x00000000004146c0       0x62 novoalignCSMPI.a(novoalignmpi.o)
                0x00000000004146c0                _ZN9findamateD1Ev
                0x00000000004146c0                _ZN9findamateD2Ev
 *fill*         0x0000000000414722        0xe 90909090
 .text._ZN12alignmentrpt9sidealignD2Ev
                0x0000000000414730      0x176 novoalignCSMPI.a(novoalignmpi.o)
                0x0000000000414730                _ZN12alignmentrpt9sidealignD2Ev
                0x0000000000414730                _ZN12alignmentrpt9sidealignD1Ev
 *fill*         0x00000000004148a6        0xa 90909090
 .text._ZN10pe_adapterD2Ev
                0x00000000004148b0      0x158 novoalignCSMPI.a(novoalignmpi.o)
                0x00000000004148b0                _ZN10pe_adapterD2Ev
                0x00000000004148b0                _ZN10pe_adapterD1Ev
 *fill*         0x0000000000414a08        0x8 90909090
 .text._ZN12alignmentrptD2Ev
                0x0000000000414a10      0x2b9 novoalignCSMPI.a(novoalignmpi.o)
                0x0000000000414a10                _ZN12alignmentrptD1Ev
                0x0000000000414a10                _ZN12alignmentrptD2Ev
 *fill*         0x0000000000414cc9        0x7 90909090
 .text._ZN8rptBlastD2Ev
                0x0000000000414cd0      0x5d9 novoalignCSMPI.a(novoalignmpi.o)
                0x0000000000414cd0                _ZN8rptBlastD2Ev
                0x0000000000414cd0                _ZN8rptBlastD1Ev
 *fill*         0x00000000004152a9        0x7 90909090
 .text._ZN8rptBlastD0Ev
                0x00000000004152b0      0x5e5 novoalignCSMPI.a(novoalignmpi.o)
                0x00000000004152b0                _ZN8rptBlastD0Ev
 *fill*         0x0000000000415895        0xb 90909090
 .text._ZN8reporter9rptprintfEPKcz
                0x00000000004158a0       0xf6 novoalignCSMPI.a(novoalignmpi.o)
                0x00000000004158a0                _ZN8reporter9rptprintfEPKcz
 *fill*         0x0000000000415996        0xa 90909090
 .text._ZN8rptBlast7resultsEP8wmsearch6t_side
                0x00000000004159a0      0x834 novoalignCSMPI.a(novoalignmpi.o)
                0x00000000004159a0                _ZN8rptBlast7resultsEP8wmsearch6t_side
 *fill*         0x00000000004161d4        0xc 90909090
 .text._ZN8rptBlast9polyAreadEP8wmsearch6t_side
                0x00000000004161e0       0x5e novoalignCSMPI.a(novoalignmpi.o)
                0x00000000004161e0                _ZN8rptBlast9polyAreadEP8wmsearch6t_side
 *fill*         0x000000000041623e        0x2 90909090
 .text._ZN8rptBlast8noresultEP8wmsearch6t_side
                0x0000000000416240       0x53 novoalignCSMPI.a(novoalignmpi.o)
                0x0000000000416240                _ZN8rptBlast8noresultEP8wmsearch6t_side
 *fill*         0x0000000000416293        0xd 90909090
 .text._ZN8rptBlast8lowqreadEP8wmsearch6t_side
                0x00000000004162a0       0x5e novoalignCSMPI.a(novoalignmpi.o)
                0x00000000004162a0                _ZN8rptBlast8lowqreadEP8wmsearch6t_side
 *fill*         0x00000000004162fe        0x2 90909090
 .text._ZN8rptBlast11reportpairsEP8wmsearch
                0x0000000000416300     0x1369 novoalignCSMPI.a(novoalignmpi.o)
                0x0000000000416300                _ZN8rptBlast11reportpairsEP8wmsearch
 *fill*         0x0000000000417669        0x7 90909090
 .text._ZN11queryreaderD2Ev
                0x0000000000417670      0x2f7 novoalignCSMPI.a(novoalignmpi.o)
                0x0000000000417670                _ZN11queryreaderD1Ev
                0x0000000000417670                _ZN11queryreaderD2Ev
 *fill*         0x0000000000417967        0x9 90909090
 .text._ZNSt6vectorI12alignmentrptSaIS0_EED2Ev
                0x0000000000417970      0x356 novoalignCSMPI.a(novoalignmpi.o)
                0x0000000000417970                _ZNSt6vectorI12alignmentrptSaIS0_EED2Ev
                0x0000000000417970                _ZNSt6vectorI12alignmentrptSaIS0_EED1Ev
 *fill*         0x0000000000417cc6        0xa 90909090
 .text._ZNSt8_Rb_treeIllSt9_IdentityIlESt4lessIlESaIlEE8_M_eraseEPSt13_Rb_tree_nodeIlE
                0x0000000000417cd0      0x1bc novoalignCSMPI.a(novoalignmpi.o)
                0x0000000000417cd0                _ZNSt8_Rb_treeIllSt9_IdentityIlESt4lessIlESaIlEE8_M_eraseEPSt13_Rb_tree_nodeIlE
 *fill*         0x0000000000417e8c        0x4 90909090
 .text._ZNSt8_Rb_treeI13simdalignmentS0_St9_IdentityIS0_ESt4lessIS0_ESaIS0_EE8_M_eraseEPSt13_Rb_tree_nodeIS0_E
                0x0000000000417e90      0x1bc novoalignCSMPI.a(novoalignmpi.o)
                0x0000000000417e90                _ZNSt8_Rb_treeI13simdalignmentS0_St9_IdentityIS0_ESt4lessIS0_ESaIS0_EE8_M_eraseEPSt13_Rb_tree_nodeIS0_E
 *fill*         0x000000000041804c        0x4 90909090
 .text._ZN8wmsearchD2Ev
                0x0000000000418050      0xdae novoalignCSMPI.a(novoalignmpi.o)
                0x0000000000418050                _ZN8wmsearchD1Ev
                0x0000000000418050                _ZN8wmsearchD2Ev
 *fill*         0x0000000000418dfe        0x2 90909090
 .text._ZN15novoalign_slaveD2Ev
                0x0000000000418e00      0xdfb novoalignCSMPI.a(novoalignmpi.o)
                0x0000000000418e00                _ZN15novoalign_slaveD1Ev
                0x0000000000418e00                _ZN15novoalign_slaveD2Ev
 *fill*         0x0000000000419bfb        0x5 90909090
 .text._ZN15novoalign_slaveD0Ev
                0x0000000000419c00      0xe05 novoalignCSMPI.a(novoalignmpi.o)
                0x0000000000419c00                _ZN15novoalign_slaveD0Ev
 *fill*         0x000000000041aa05        0xb 90909090
 .text          0x000000000041aa10       0x38 novoalignCSMPI.a(novolib.o)
                0x000000000041aa10                _Z9chkstderrv
 *fill*         0x000000000041aa48        0x8 90909090
 .text          0x000000000041aa50     0x40df novoalignCSMPI.a(novoparam.o)
                0x000000000041aa50                _ZN9novoparamC1ERA2_P8fragdist
                0x000000000041aa50                _ZN9novoparamC2ERA2_P8fragdist
                0x000000000041b120                _ZN9novoparam6manualEv
                0x000000000041b320                _ZN9novoparam9arg_errorEPKcz
                0x000000000041b490                _ZN9novoparam10arg_ignoreEPKc
                0x000000000041b520                _ZN9novoparam11optionIndexEcPcPPKc
                0x000000000041b610                _ZN9novoparam7optargsEiPPcb
                0x000000000041dff0                _ZN9novoparam7setpcalEP12prbcalibrateS1_
                0x000000000041e080                _ZN9novoparam8savepcalEv
                0x000000000041e0f0                _ZN9novoparam8bcmanualEv
                0x000000000041e130                _ZN9novoparam11bcarg_errorEPKc
                0x000000000041e1d0                _ZN9novoparam9bcoptargsEiPPc
                0x000000000041e8f0                _ZN9novoparam7idxloadEPKcb
 *fill*         0x000000000041eb2f        0x1 90909090
 .text          0x000000000041eb30       0x44 novoalignCSMPI.a(posteriorP.o)
                0x000000000041eb30                _ZN10posteriorP10initstaticEv
 *fill*         0x000000000041eb74        0xc 90909090
 .text          0x000000000041eb80     0x1098 novoalignCSMPI.a(prbcalibrateCS.o)
                0x000000000041eb80                _ZN12prbcalibrate5resetEv
                0x000000000041ec30                _ZN12prbcalibrate15recalcpenaltiesEv
                0x000000000041f270                _ZN12prbcalibrateC2Ev
                0x000000000041f270                _ZN12prbcalibrateC1Ev
                0x000000000041f320                _ZN12prbcalibrate12addalignmentEP4nawmiRSs
                0x000000000041f5b0                _ZN12prbcalibrate5addnmEP4nawm
                0x000000000041f6f0                _ZN12prbcalibrate4loadERSsi
                0x000000000041f8c0                _ZN12prbcalibrate4saveERSsi
 *fill*         0x000000000041fc18        0x8 90909090
 .text          0x000000000041fc20      0x3aa novoalignCSMPI.a(prbcalibrateMPI.o)
                0x000000000041fc20                _ZN15prbcalibrateMPI8mmcountsERi
                0x000000000041fcf0                _ZN15prbcalibrateMPI9addcountsEPvi
                0x000000000041fde0                _ZN15prbcalibrateMPI12setpenaltiesEPvi
                0x000000000041feb0                _ZN15prbcalibrateMPI12getpenaltiesERPh
 *fill*         0x000000000041ffca        0x6 90909090
 .text          0x000000000041ffd0      0x460 novoalignCSMPI.a(qualconvert.o)
                0x000000000041ffd0                _ZN11qualconvert7setpsnpEf
 .text          0x0000000000420430      0x856 novoalignCSMPI.a(queryfolder.o)
                0x0000000000420430                _ZN11queryfolder4openEv
                0x0000000000420760                _ZN11queryfolder9isIlmLowQEv
                0x0000000000420770                _ZN11queryfolder5getxyERiS0_S0_RSs
                0x0000000000420880                _ZN11queryfolder10check_hdrsERi
                0x00000000004209a0                _ZN11queryfolder4nextEP8wmsearch
                0x0000000000420b50                _ZN11queryfolder3eofEv
 *fill*         0x0000000000420c86        0xa 90909090
 .text          0x0000000000420c90      0xd38 novoalignCSMPI.a(queryformatCS.o)
                0x0000000000420e10                _ZN11queryformat11checkformatERSsPcR9novoparam
                0x0000000000421820                _ZN11queryformat8qualfileERSs13t_queryformat
 *fill*         0x00000000004219c8        0x8 90909090
 .text          0x00000000004219d0      0xd34 novoalignCSMPI.a(queryreader.o)
                0x00000000004219d0                _ZN11queryreader9nextfastaEv
                0x0000000000421c80                _ZN11queryreader15nextfastanphredEv
                0x00000000004220f0                _ZN11queryreader9nextfastqEv
                0x00000000004224b0                _ZN11queryreader4openE13t_queryformatPKcS2_
 *fill*         0x0000000000422704        0xc 90909090
 .text          0x0000000000422710      0x2b9 novoalignCSMPI.a(queryreaderCS.o)
                0x0000000000422710                _ZN11queryreader4nextEv
                0x00000000004227a0                _ZN11queryreader5setwmEP8wmsearch6t_side
                0x00000000004228e0                _ZN11queryreader10setcsfastaEP8wmsearch6t_side
                0x0000000000422910                _ZN11queryreader13setcsfastanqvEP8wmsearch6t_side
                0x0000000000422950                _ZN11queryreader10setcsfastqEP8wmsearch6t_side
                0x0000000000422990                _ZN11queryreader9setbfastqEP8wmsearch6t_side
 *fill*         0x00000000004229c9        0x7 90909090
 .text          0x00000000004229d0      0x51e novoalignCSMPI.a(reporter.o)
                0x00000000004229d0                _ZN8reporter4finiEv
                0x0000000000422b40                _ZN8reporter10getdetailsEv
 *fill*         0x0000000000422eee        0x2 90909090
 .text._ZN8reporter8lowqreadEP8wmsearch6t_side
                0x0000000000422ef0       0x1b novoalignCSMPI.a(reporter.o)
                0x0000000000422ef0                _ZN8reporter8lowqreadEP8wmsearch6t_side
 *fill*         0x0000000000422f0b        0x5 90909090
 .text._ZN8reporter9polyAreadEP8wmsearch6t_side
                0x0000000000422f10       0x1b novoalignCSMPI.a(reporter.o)
                0x0000000000422f10                _ZN8reporter9polyAreadEP8wmsearch6t_side
 *fill*         0x0000000000422f2b        0x5 90909090
 .text._ZN8reporter8noresultEP8wmsearch6t_side
                0x0000000000422f30       0x13 novoalignCSMPI.a(reporter.o)
                0x0000000000422f30                _ZN8reporter8noresultEP8wmsearch6t_side
 *fill*         0x0000000000422f43        0xd 90909090
 .text._ZN8reporter11reportpairsEP8wmsearch
                0x0000000000422f50       0x5d novoalignCSMPI.a(reporter.o)
                0x0000000000422f50                _ZN8reporter11reportpairsEP8wmsearch
 *fill*         0x0000000000422fad        0x3 90909090
 .text._ZN8reporter7resultsEP8wmsearch6t_side
                0x0000000000422fb0       0xb9 novoalignCSMPI.a(reporter.o)
                0x0000000000422fb0                _ZN8reporter7resultsEP8wmsearch6t_side
 *fill*         0x0000000000423069        0x7 90909090
 .text._ZN8reporterD2Ev
                0x0000000000423070      0x5d9 novoalignCSMPI.a(reporter.o)
                0x0000000000423070                _ZN8reporterD2Ev
                0x0000000000423070                _ZN8reporterD1Ev
 *fill*         0x0000000000423649        0x7 90909090
 .text._ZN8reporterD0Ev
                0x0000000000423650      0x5e5 novoalignCSMPI.a(reporter.o)
                0x0000000000423650                _ZN8reporterD0Ev
 *fill*         0x0000000000423c35        0xb 90909090
 .text          0x0000000000423c40     0x1c53 novoalignCSMPI.a(rptNative.o)
                0x0000000000423c40                _ZN9rptNative5rptNMEPKci
                0x0000000000423e20                _ZN9rptNative7rptlocnEv
                0x0000000000423f50                _ZN9rptNative11rptpairlocnEv
                0x0000000000424330                _ZN9rptNative11rptmismatchEv
                0x0000000000424830                _ZN9rptNative8rptalignEPKci
                0x0000000000424b60                _ZN9rptNative11reportpairsEP8wmsearch
                0x00000000004256a0                _ZN9rptNative7resultsEP8wmsearch6t_side
 *fill*         0x0000000000425893        0xd 90909090
 .text._ZN9rptNativeD0Ev
                0x00000000004258a0      0x5e5 novoalignCSMPI.a(rptNative.o)
                0x00000000004258a0                _ZN9rptNativeD0Ev
 *fill*         0x0000000000425e85        0xb 90909090
 .text._ZN9rptNativeD2Ev
                0x0000000000425e90      0x5d9 novoalignCSMPI.a(rptNative.o)
                0x0000000000425e90                _ZN9rptNativeD1Ev
                0x0000000000425e90                _ZN9rptNativeD2Ev
 *fill*         0x0000000000426469        0x7 90909090
 .text._ZN9rptNative8noresultEP8wmsearch6t_side
                0x0000000000426470       0x1e novoalignCSMPI.a(rptNative.o)
                0x0000000000426470                _ZN9rptNative8noresultEP8wmsearch6t_side
 *fill*         0x000000000042648e        0x2 90909090
 .text._ZN9rptNative9polyAreadEP8wmsearch6t_side
                0x0000000000426490       0x34 novoalignCSMPI.a(rptNative.o)
                0x0000000000426490                _ZN9rptNative9polyAreadEP8wmsearch6t_side
 *fill*         0x00000000004264c4        0xc 90909090
 .text._ZN9rptNative8lowqreadEP8wmsearch6t_side
                0x00000000004264d0       0x34 novoalignCSMPI.a(rptNative.o)
                0x00000000004264d0                _ZN9rptNative8lowqreadEP8wmsearch6t_side
 *fill*         0x0000000000426504        0xc 90909090
 .text          0x0000000000426510     0x31b8 novoalignCSMPI.a(rptSAM.o)
                0x0000000000426510                _ZN6rptSAM6dbinfoEv
                0x00000000004266b0                _ZN6rptSAM5startEiPPciiPKc
                0x00000000004269d0                _ZN6rptSAM10rptreadhdrEv
                0x0000000000426cc0                _ZN6rptSAM17strandprimarymateEv
                0x0000000000426d90                _ZN6rptSAM18rptprimarymatelocnEP9seqheader
                0x00000000004270a0                _ZN6rptSAM5rptNMEPKci
                0x00000000004274b0                _ZN6rptSAM23rptprimaryalignmentlocnEP9seqheader
                0x00000000004276c0                _ZN6rptSAM11rptpairlocnEv
                0x0000000000427980                _ZN6rptSAM8rptcigarEv
                0x0000000000427fe0                _ZN6rptSAM8rptalignEPKci6t_side
                0x0000000000428dc0                _ZN6rptSAM11reportpairsEP8wmsearch
                0x0000000000429470                _ZN6rptSAM7resultsEP8wmsearch6t_side
 *fill*         0x00000000004296c8        0x8 90909090
 .text._ZN6rptSAMD0Ev
                0x00000000004296d0      0x81b novoalignCSMPI.a(rptSAM.o)
                0x00000000004296d0                _ZN6rptSAMD0Ev
 *fill*         0x0000000000429eeb        0x5 90909090
 .text._ZN6rptSAMD2Ev
                0x0000000000429ef0      0x80f novoalignCSMPI.a(rptSAM.o)
                0x0000000000429ef0                _ZN6rptSAMD2Ev
                0x0000000000429ef0                _ZN6rptSAMD1Ev
 *fill*         0x000000000042a6ff        0x1 90909090
 .text._ZN6rptSAM12stringprintfERSsPKcz
                0x000000000042a700       0xc5 novoalignCSMPI.a(rptSAM.o)
                0x000000000042a700                _ZN6rptSAM12stringprintfERSsPKcz
 *fill*         0x000000000042a7c5        0xb 90909090
 .text._ZN6rptSAM8noresultEP8wmsearch6t_side
                0x000000000042a7d0       0x21 novoalignCSMPI.a(rptSAM.o)
                0x000000000042a7d0                _ZN6rptSAM8noresultEP8wmsearch6t_side
 *fill*         0x000000000042a7f1        0xf 90909090
 .text._ZN6rptSAM9polyAreadEP8wmsearch6t_side
                0x000000000042a800       0x29 novoalignCSMPI.a(rptSAM.o)
                0x000000000042a800                _ZN6rptSAM9polyAreadEP8wmsearch6t_side
 *fill*         0x000000000042a829        0x7 90909090
 .text._ZN6rptSAM8lowqreadEP8wmsearch6t_side
                0x000000000042a830       0x29 novoalignCSMPI.a(rptSAM.o)
                0x000000000042a830                _ZN6rptSAM8lowqreadEP8wmsearch6t_side
 *fill*         0x000000000042a859        0x7 90909090
 .text          0x000000000042a860      0x4f5 novoalignCSMPI.a(TThread.o)
                0x000000000042a860                _run_thread
                0x000000000042a8b0                _ZN7TThreadD0Ev
                0x000000000042a960                _ZN7TThreadD1Ev
                0x000000000042a960                _ZN7TThreadD2Ev
                0x000000000042aa00                _ZN7TThreadC1Ei
                0x000000000042aa00                _ZN7TThreadC2Ei
                0x000000000042aa50                _ZN7TThread13set_thread_noEi
                0x000000000042aa60                _ZN7TThread6createEbbm
                0x000000000042abd0                _ZN7TThread6detachEv
                0x000000000042ac20                _ZN7TThread4joinEv
                0x000000000042ac70                _ZN7TThread6cancelEv
                0x000000000042acc0                _ZN7TThread4exitEv
                0x000000000042ace0                _ZN7TThread5sleepEd
                0x000000000042ad50                _ZN6TMutex4lockEv
 *fill*         0x000000000042ad55        0xb 90909090
 .text          0x000000000042ad60      0x9a3 novoalignCSMPI.a(TThreadPool.o)
                0x000000000042ad60                _ZN11TThreadPool4TJobD1Ev
                0x000000000042ad60                _ZN11TThreadPool4TJobD2Ev
                0x000000000042ae50                _ZN11TThreadPool4TJobD0Ev
                0x000000000042ae70                _ZN11TThreadPool4syncEPNS_4TJobE
                0x000000000042aea0                _ZN11TThreadPool8sync_allEv
                0x000000000042aef0                _ZN11TThreadPool8get_idleEv
                0x000000000042af90                _ZN11TThreadPool3runEPNS_4TJobEPvb
                0x000000000042b050                _ZN11TThreadPool11append_idleEP8TPoolThr
                0x000000000042b0f0                _Z6tp_runPN11TThreadPool4TJobEPvb
                0x000000000042b1c0                _Z7tp_syncPN11TThreadPool4TJobE
                0x000000000042b1f0                _Z11tp_sync_allv
                0x000000000042b240                _ZN11TThreadPoolD2Ev
                0x000000000042b240                _ZN11TThreadPoolD1Ev
                0x000000000042b3d0                _Z7tp_donev
                0x000000000042b400                _ZN11TThreadPoolC1Ejm
                0x000000000042b400                _ZN11TThreadPoolC2Ejm
                0x000000000042b660                _Z7tp_initjm
 *fill*         0x000000000042b703        0xd 90909090
 .text._ZN8TPoolThrD2Ev
                0x000000000042b710       0x55 novoalignCSMPI.a(TThreadPool.o)
                0x000000000042b710                _ZN8TPoolThrD2Ev
                0x000000000042b710                _ZN8TPoolThrD1Ev
 *fill*         0x000000000042b765        0xb 90909090
 .text._ZN8TPoolThrD0Ev
                0x000000000042b770       0x5d novoalignCSMPI.a(TThreadPool.o)
                0x000000000042b770                _ZN8TPoolThrD0Ev
 *fill*         0x000000000042b7cd        0x3 90909090
 .text._ZN10TConditionD2Ev
                0x000000000042b7d0       0x1f novoalignCSMPI.a(TThreadPool.o)
                0x000000000042b7d0                _ZN10TConditionD1Ev
                0x000000000042b7d0                _ZN10TConditionD2Ev
 *fill*         0x000000000042b7ef        0x1 90909090
 .text._ZN8TPoolThr3runEv
                0x000000000042b7f0      0x108 novoalignCSMPI.a(TThreadPool.o)
                0x000000000042b7f0                _ZN8TPoolThr3runEv
 *fill*         0x000000000042b8f8        0x8 90909090
 .text._ZN3sllIP8TPoolThrED2Ev
                0x000000000042b900       0x53 novoalignCSMPI.a(TThreadPool.o)
                0x000000000042b900                _ZN3sllIP8TPoolThrED2Ev
                0x000000000042b900                _ZN3sllIP8TPoolThrED1Ev
 *fill*         0x000000000042b953        0xd 90909090
 .text          0x000000000042b960       0xf5 novoalignCSMPI.a(TTimer.o)
                0x000000000042b960                _ZN6TTimer11system_timeEv
 *fill*         0x000000000042ba55        0xb 90909090
 .text          0x000000000042ba60     0xe893 novoalignCSMPI.a(wmsearch.o)
                0x000000000042c360                _ZN8wmsearch7calcthrEi
                0x000000000042c760                _ZN8wmsearch13select_randomE6t_side
                0x000000000042c940                _ZN8wmsearch16select_random_peEv
                0x000000000042cb10                _ZN8wmsearch12setalignmentER13simdalignment6t_side8t_strandimN7ksindex5indexE
                0x000000000042cc50                _ZN8wmsearch8ctga_iubEN7ksindex5indexEPDv2_xS3_i
                0x000000000042cc50                _ZN8wmsearch8ctga_iubEN7ksindex5indexEPU8__vectorxS3_i
                0x000000000042cd00                _ZN12alignmentrpt11detailalignEP8wmsearchi
                0x000000000042d1c0                _ZN12alignmentrpt9addSEQCalEP8wmsearch
                0x000000000042d430                _ZN12alignmentrpt11addPairQCalEP8wmsearchi
                0x000000000042d5a0                _ZN8wmsearch7calcthrEv
                0x000000000042d9b0                _ZN8wmsearch4mateER13simdalignmentS1_RiS2_
                0x000000000042d9e0                _ZN8wmsearch9makepairsEi
                0x000000000042e5c0                _ZN8wmsearch12addalignmentER13simdalignment8t_strandimb
                0x000000000042e710                _ZN8wmsearch8dosearchE6t_side8t_strandbiilllN7ksindex5indexE
                0x000000000042fdd0                _ZN8wmsearch9thrsearchE6t_sidel
                0x0000000000430ae0                _ZN8wmsearch18remove_altpairingsEv
                0x0000000000430c70                _ZN8wmsearch14trimsv_resultsEv
                0x0000000000430ec0                _ZN8wmsearch9sequalityEv
                0x0000000000431470                _ZN8wmsearch13rmdup_resultsE6t_side
                0x0000000000431660                _ZN8wmsearch12trim_resultsE6t_side
                0x0000000000431940                _ZN8wmsearch10mergepairsEv
                0x0000000000432e90                _ZN8wmsearch10finaldedupEv
                0x0000000000434d60                _ZN8wmsearch17detail_results_peEv
                0x00000000004355e0                _ZN8wmsearch16rmdup_rptresultsE6t_side
                0x0000000000436680                _ZN8wmsearch14detail_resultsE6t_side
                0x0000000000436b90                _ZN8wmsearch6searchE6t_side
                0x0000000000437a70                _ZN8wmsearch10searchpairEv
 *fill*         0x000000000043a2f3        0xd 90909090
 .text._Z14lessSEquality0RK13simdalignmentS1_
                0x000000000043a300       0x5c novoalignCSMPI.a(wmsearch.o)
                0x000000000043a300                _Z14lessSEquality0RK13simdalignmentS1_
 *fill*         0x000000000043a35c        0x4 90909090
 .text._Z14lessSEquality1RK13simdalignmentS1_
                0x000000000043a360       0x5c novoalignCSMPI.a(wmsearch.o)
                0x000000000043a360                _Z14lessSEquality1RK13simdalignmentS1_
 *fill*         0x000000000043a3bc        0x4 90909090
 .text._Z14lessSEdupcheckRK13simdalignmentS1_
                0x000000000043a3c0       0x4e novoalignCSMPI.a(wmsearch.o)
                0x000000000043a3c0                _Z14lessSEdupcheckRK13simdalignmentS1_
 *fill*         0x000000000043a40e        0x2 90909090
 .text._Z14lessscore_locnRK13simdalignmentS1_
                0x000000000043a410       0x48 novoalignCSMPI.a(wmsearch.o)
                0x000000000043a410                _Z14lessscore_locnRK13simdalignmentS1_
 *fill*         0x000000000043a458        0x8 90909090
 .text._Z14lessscore_randRK13simdalignmentS1_
                0x000000000043a460       0x4a novoalignCSMPI.a(wmsearch.o)
                0x000000000043a460                _Z14lessscore_randRK13simdalignmentS1_
 *fill*         0x000000000043a4aa        0x6 90909090
 .text._Z17lessscore_randrptRK12alignmentrptS1_
                0x000000000043a4b0       0x50 novoalignCSMPI.a(wmsearch.o)
                0x000000000043a4b0                _Z17lessscore_randrptRK12alignmentrptS1_
 .text._Z16lesssvscore_randRK13simdalignmentS1_
                0x000000000043a500       0x50 novoalignCSMPI.a(wmsearch.o)
                0x000000000043a500                _Z16lesssvscore_randRK13simdalignmentS1_
 .text._Z15lessdupchecklE1RK13simdalignmentS1_
                0x000000000043a550       0x6e novoalignCSMPI.a(wmsearch.o)
                0x000000000043a550                _Z15lessdupchecklE1RK13simdalignmentS1_
 *fill*         0x000000000043a5be        0x2 90909090
 .text._Z15lessdupchecklE0RK13simdalignmentS1_
                0x000000000043a5c0       0x6e novoalignCSMPI.a(wmsearch.o)
                0x000000000043a5c0                _Z15lessdupchecklE0RK13simdalignmentS1_
 *fill*         0x000000000043a62e        0x2 90909090
 .text._Z17lessdupchecksplitRK13simdalignmentS1_
                0x000000000043a630       0x6e novoalignCSMPI.a(wmsearch.o)
                0x000000000043a630                _Z17lessdupchecksplitRK13simdalignmentS1_
 *fill*         0x000000000043a69e        0x2 90909090
 .text._Z17lessSEdupcheckrptRK12alignmentrptS1_
                0x000000000043a6a0       0xd8 novoalignCSMPI.a(wmsearch.o)
                0x000000000043a6a0                _Z17lessSEdupcheckrptRK12alignmentrptS1_
 *fill*         0x000000000043a778        0x8 90909090
 .text._Z19rptlesssvscore_randRK12alignmentrptS1_
                0x000000000043a780       0x68 novoalignCSMPI.a(wmsearch.o)
                0x000000000043a780                _Z19rptlesssvscore_randRK12alignmentrptS1_
 *fill*         0x000000000043a7e8        0x8 90909090
 .text._Z15lessdupcheckl3pRK12alignmentrptS1_
                0x000000000043a7f0       0xb0 novoalignCSMPI.a(wmsearch.o)
                0x000000000043a7f0                _Z15lessdupcheckl3pRK12alignmentrptS1_
 .text._Z15lessdupcheckl5pRK12alignmentrptS1_
                0x000000000043a8a0       0x96 novoalignCSMPI.a(wmsearch.o)
                0x000000000043a8a0                _Z15lessdupcheckl5pRK12alignmentrptS1_
 *fill*         0x000000000043a936        0xa 90909090
 .text._ZNK12alignmentrpt11pairqualityEdP9novoparam
                0x000000000043a940       0xdb novoalignCSMPI.a(wmsearch.o)
                0x000000000043a940                _ZNK12alignmentrpt11pairqualityEdP9novoparam
 *fill*         0x000000000043aa1b        0x5 90909090
 .text._ZN12alignmentrptC2ERKS_
                0x000000000043aa20      0x2cb novoalignCSMPI.a(wmsearch.o)
                0x000000000043aa20                _ZN12alignmentrptC1ERKS_
                0x000000000043aa20                _ZN12alignmentrptC2ERKS_
 *fill*         0x000000000043aceb        0x5 90909090
 .text._ZNSt8_Rb_treeIllSt9_IdentityIlESt4lessIlESaIlEE16_M_insert_uniqueERKl
                0x000000000043acf0      0x116 novoalignCSMPI.a(wmsearch.o)
                0x000000000043acf0                _ZNSt8_Rb_treeIllSt9_IdentityIlESt4lessIlESaIlEE16_M_insert_uniqueERKl
 *fill*         0x000000000043ae06        0xa 90909090
 .text._ZNSt6vectorI13simdalignmentSaIS0_EE13_M_insert_auxEN9__gnu_cxx17__normal_iteratorIPS0_S2_EERKS0_
                0x000000000043ae10      0x40e novoalignCSMPI.a(wmsearch.o)
                0x000000000043ae10                _ZNSt6vectorI13simdalignmentSaIS0_EE13_M_insert_auxEN9__gnu_cxx17__normal_iteratorIPS0_S2_EERKS0_
 *fill*         0x000000000043b21e        0x2 90909090
 .text._ZSt16__insertion_sortIN9__gnu_cxx17__normal_iteratorIP13simdalignmentSt6vectorIS2_SaIS2_EEEEPFbRKS2_S9_EEvT_SC_T0_
                0x000000000043b220      0x3e0 novoalignCSMPI.a(wmsearch.o)
                0x000000000043b220                _ZSt16__insertion_sortIN9__gnu_cxx17__normal_iteratorIP13simdalignmentSt6vectorIS2_SaIS2_EEEEPFbRKS2_S9_EEvT_SC_T0_
 .text._ZN12alignmentrptaSERKS_
                0x000000000043b600      0x200 novoalignCSMPI.a(wmsearch.o)
                0x000000000043b600                _ZN12alignmentrptaSERKS_
 .text._ZSt16__insertion_sortIN9__gnu_cxx17__normal_iteratorIP12alignmentrptSt6vectorIS2_SaIS2_EEEEPFbRKS2_S9_EEvT_SC_T0_
                0x000000000043b800      0xa5f novoalignCSMPI.a(wmsearch.o)
                0x000000000043b800                _ZSt16__insertion_sortIN9__gnu_cxx17__normal_iteratorIP12alignmentrptSt6vectorIS2_SaIS2_EEEEPFbRKS2_S9_EEvT_SC_T0_
 *fill*         0x000000000043c25f        0x1 90909090
 .text._ZNSt6vectorI12alignmentrptSaIS0_EE14_M_fill_insertEN9__gnu_cxx17__normal_iteratorIPS0_S2_EEmRKS0_
                0x000000000043c260      0x727 novoalignCSMPI.a(wmsearch.o)
                0x000000000043c260                _ZNSt6vectorI12alignmentrptSaIS0_EE14_M_fill_insertEN9__gnu_cxx17__normal_iteratorIPS0_S2_EEmRKS0_
 *fill*         0x000000000043c987        0x9 90909090
 .text._ZNSt8_Rb_treeI13simdalignmentS0_St9_IdentityIS0_ESt4lessIS0_ESaIS0_EE10_M_insert_EPKSt18_Rb_tree_node_baseS9_RKS0_
                0x000000000043c990       0xd8 novoalignCSMPI.a(wmsearch.o)
                0x000000000043c990                _ZNSt8_Rb_treeI13simdalignmentS0_St9_IdentityIS0_ESt4lessIS0_ESaIS0_EE10_M_insert_EPKSt18_Rb_tree_node_baseS9_RKS0_
 *fill*         0x000000000043ca68        0x8 90909090
 .text._ZNSt8_Rb_treeI13simdalignmentS0_St9_IdentityIS0_ESt4lessIS0_ESaIS0_EE16_M_insert_uniqueERKS0_
                0x000000000043ca70      0x131 novoalignCSMPI.a(wmsearch.o)
                0x000000000043ca70                _ZNSt8_Rb_treeI13simdalignmentS0_St9_IdentityIS0_ESt4lessIS0_ESaIS0_EE16_M_insert_uniqueERKS0_
 *fill*         0x000000000043cba1        0xf 90909090
 .text._ZNSt6vectorI13simdalignmentSaIS0_EE15_M_range_insertIN9__gnu_cxx17__normal_iteratorIPS0_S2_EEEEvS7_T_S8_St20forward_iterator_tag
                0x000000000043cbb0      0x5fe novoalignCSMPI.a(wmsearch.o)
                0x000000000043cbb0                _ZNSt6vectorI13simdalignmentSaIS0_EE15_M_range_insertIN9__gnu_cxx17__normal_iteratorIPS0_S2_EEEEvS7_T_S8_St20forward_iterator_tag
 *fill*         0x000000000043d1ae        0x2 90909090
 .text._ZSt19__move_median_firstIN9__gnu_cxx17__normal_iteratorIP13simdalignmentSt6vectorIS2_SaIS2_EEEEPFbRKS2_S9_EEvT_SC_SC_T0_
                0x000000000043d1b0      0x2fe novoalignCSMPI.a(wmsearch.o)
                0x000000000043d1b0                _ZSt19__move_median_firstIN9__gnu_cxx17__normal_iteratorIP13simdalignmentSt6vectorIS2_SaIS2_EEEEPFbRKS2_S9_EEvT_SC_SC_T0_
 *fill*         0x000000000043d4ae        0x2 90909090
 .text._ZSt9make_heapIN9__gnu_cxx17__normal_iteratorIP12alignmentrptSt6vectorIS2_SaIS2_EEEEPFbRKS2_S9_EEvT_SC_T0_
                0x000000000043d4b0      0x42c novoalignCSMPI.a(wmsearch.o)
                0x000000000043d4b0                _ZSt9make_heapIN9__gnu_cxx17__normal_iteratorIP12alignmentrptSt6vectorIS2_SaIS2_EEEEPFbRKS2_S9_EEvT_SC_T0_
 *fill*         0x000000000043d8dc        0x4 90909090
 .text._ZSt10__pop_heapIN9__gnu_cxx17__normal_iteratorIP12alignmentrptSt6vectorIS2_SaIS2_EEEEPFbRKS2_S9_EEvT_SC_SC_T0_
                0x000000000043d8e0       0xdc novoalignCSMPI.a(wmsearch.o)
                0x000000000043d8e0                _ZSt10__pop_heapIN9__gnu_cxx17__normal_iteratorIP12alignmentrptSt6vectorIS2_SaIS2_EEEEPFbRKS2_S9_EEvT_SC_SC_T0_
 *fill*         0x000000000043d9bc        0x4 90909090
 .text._ZSt13__adjust_heapIN9__gnu_cxx17__normal_iteratorIP13simdalignmentSt6vectorIS2_SaIS2_EEEElS2_PFbRKS2_S9_EEvT_T0_SD_T1_T2_
                0x000000000043d9c0      0x456 novoalignCSMPI.a(wmsearch.o)
                0x000000000043d9c0                _ZSt13__adjust_heapIN9__gnu_cxx17__normal_iteratorIP13simdalignmentSt6vectorIS2_SaIS2_EEEElS2_PFbRKS2_S9_EEvT_T0_SD_T1_T2_
 *fill*         0x000000000043de16        0xa 90909090
 .text._ZSt13__heap_selectIN9__gnu_cxx17__normal_iteratorIP13simdalignmentSt6vectorIS2_SaIS2_EEEEPFbRKS2_S9_EEvT_SC_SC_T0_
                0x000000000043de20      0x244 novoalignCSMPI.a(wmsearch.o)
                0x000000000043de20                _ZSt13__heap_selectIN9__gnu_cxx17__normal_iteratorIP13simdalignmentSt6vectorIS2_SaIS2_EEEEPFbRKS2_S9_EEvT_SC_SC_T0_
 *fill*         0x000000000043e064        0xc 90909090
 .text._ZSt16__introsort_loopIN9__gnu_cxx17__normal_iteratorIP13simdalignmentSt6vectorIS2_SaIS2_EEEElPFbRKS2_S9_EEvT_SC_T0_T1_
                0x000000000043e070      0x3d8 novoalignCSMPI.a(wmsearch.o)
                0x000000000043e070                _ZSt16__introsort_loopIN9__gnu_cxx17__normal_iteratorIP13simdalignmentSt6vectorIS2_SaIS2_EEEElPFbRKS2_S9_EEvT_SC_T0_T1_
 *fill*         0x000000000043e448        0x8 90909090
 .text._ZSt4sortIN9__gnu_cxx17__normal_iteratorIP13simdalignmentSt6vectorIS2_SaIS2_EEEEPFbRKS2_S9_EEvT_SC_T0_
                0x000000000043e450      0x23f novoalignCSMPI.a(wmsearch.o)
                0x000000000043e450                _ZSt4sortIN9__gnu_cxx17__normal_iteratorIP13simdalignmentSt6vectorIS2_SaIS2_EEEEPFbRKS2_S9_EEvT_SC_T0_
 *fill*         0x000000000043e68f        0x1 90909090
 .text._ZSt4swapI12alignmentrptEvRT_S2_
                0x000000000043e690       0x6b novoalignCSMPI.a(wmsearch.o)
                0x000000000043e690                _ZSt4swapI12alignmentrptEvRT_S2_
 *fill*         0x000000000043e6fb        0x5 90909090
 .text._ZSt19__move_median_firstIN9__gnu_cxx17__normal_iteratorIP12alignmentrptSt6vectorIS2_SaIS2_EEEEPFbRKS2_S9_EEvT_SC_SC_T0_
                0x000000000043e700       0xa3 novoalignCSMPI.a(wmsearch.o)
                0x000000000043e700                _ZSt19__move_median_firstIN9__gnu_cxx17__normal_iteratorIP12alignmentrptSt6vectorIS2_SaIS2_EEEEPFbRKS2_S9_EEvT_SC_SC_T0_
 *fill*         0x000000000043e7a3        0xd 90909090
 .text._ZSt16__introsort_loopIN9__gnu_cxx17__normal_iteratorIP12alignmentrptSt6vectorIS2_SaIS2_EEEElPFbRKS2_S9_EEvT_SC_T0_T1_
                0x000000000043e7b0      0x158 novoalignCSMPI.a(wmsearch.o)
                0x000000000043e7b0                _ZSt16__introsort_loopIN9__gnu_cxx17__normal_iteratorIP12alignmentrptSt6vectorIS2_SaIS2_EEEElPFbRKS2_S9_EEvT_SC_T0_T1_
 .text          0x000000000043e908        0x0 novoalignCSMPI.a(linkdate.o)
 *fill*         0x000000000043e908        0x8 90909090
 .text          0x000000000043e910     0x1018 novoalignCSMPI.a(filehandle.o)
                0x000000000043e910                _ZN10filehandleC1Ev
                0x000000000043e910                _ZN10filehandleC2Ev
                0x000000000043e9d0                _ZN10filehandleD2Ev
                0x000000000043e9d0                _ZN10filehandleD1Ev
                0x000000000043eae0                _ZN10filehandle13checkFileTypeEv
                0x000000000043ec40                _ZN10filehandle5isbz2Ev
                0x000000000043ecd0                _ZN10filehandle6ispipeEv
                0x000000000043ed10                _ZN10filehandle5isdirEv
                0x000000000043ed50                _ZN10filehandle6isgzipEv
                0x000000000043edc0                _ZN10filehandle4openESs
                0x000000000043f070                _ZN10filehandle8uncfopenEv
                0x000000000043f0c0                _ZN10filehandle8bz2fopenEv
                0x000000000043f140                _ZN10filehandle7gzfopenEv
                0x000000000043f1a0                _ZN10filehandle3eofEv
                0x000000000043f210                _ZN10filehandle8pushbackERSs
                0x000000000043f220                _ZN10filehandle10uncgetlineERSs
                0x000000000043f470                _ZN10filehandle10bz2getlineERSs
                0x000000000043f5d0                _ZN10filehandle9gzgetlineERSs
                0x000000000043f7b0                _ZN10filehandle7getlineERSs
                0x000000000043f8e0                _ZN10filehandle5closeEv
 *fill*         0x000000000043f928        0x8 90909090
 .text          0x000000000043f930      0xe86 novoalignCSMPI.a(findamateCS.o)
                0x000000000043f930                _ZN9findamate5alignEbP4nawmPciPhi
                0x000000000043fd10                _ZN9findamate9alignsimdEbP4nawmPciPhi
                0x00000000004407a0                _ZN9findamate8nextbestEv
                0x00000000004407b0                _ZN9findamate6align2EbP4nawmPciPhi
 *fill*         0x00000000004407b6        0xa 90909090
 .text          0x00000000004407c0       0xcb novoalignCSMPI.a(fragdistMPI.o)
                0x00000000004407c0                _ZN11fragdistMPI12setpenaltiesEPvi
                0x0000000000440820                _ZN11fragdistMPI8flcountsERi
                0x0000000000440830                _ZN11fragdistMPI9addcountsEPvi
                0x0000000000440860                _ZN11fragdistMPI15recalcpenaltiesEv
                0x0000000000440880                _ZN11fragdistMPI12getpenaltiesERPh
 *fill*         0x000000000044088b        0x5 90909090
 .text          0x0000000000440890      0x436 novoalignCSMPI.a(iubcodes.o)
                0x0000000000440890                _ZN8iubcodesC2Ev
                0x0000000000440890                _ZN8iubcodesC1Ev
                0x0000000000440ae0                _ZNK8iubcodes6rvqualERSsRKSs
                0x0000000000440b60                _ZNK8iubcodes5rcseqERSsRKSs
                0x0000000000440bf0                _ZNK8iubcodes5rcseqERSsPKc
                0x0000000000440c80                _ZNK8iubcodes6rcseqnEPcPKci
 *fill*         0x0000000000440cc6        0xa 90909090
 .text          0x0000000000440cd0      0x8d5 novoalignCSMPI.a(keygenCS.o)
                0x0000000000440f00                _ZN6keygen7fullkeyEv
                0x0000000000440f80                _ZN6keygen4initEiill
                0x0000000000441040                _ZN6keygen5nextxEv
                0x0000000000441090                _ZN6keygen9key_nogapEi
                0x0000000000441150                _ZN6keygen11count_nogapEilPjN7ksindex5indexE
 *fill*         0x00000000004415a5        0xb 90909090
 .text          0x00000000004415b0      0xe86 novoalignCSMPI.a(license.o)
                0x00000000004415b0                _ZN7license7decryptEPhS0_
                0x0000000000441630                _ZN7license11checkexpiryEPc
                0x0000000000441840                _ZN7license11readlicenseEPcS0_
 *fill*         0x0000000000442436        0xa 90909090
 .text          0x0000000000442440     0x2586 novoalignCSMPI.a(nawmCS.o)
                0x0000000000442440                _ZN4nawm5setrcEPS_
                0x0000000000442870                _ZN4nawm6finishEi
                0x0000000000443270                _ZN4nawm10trimspacesEv
                0x0000000000443370                _ZN4nawm10setcsfastaEPKc
                0x00000000004433c0                _ZN4nawm10setcsfastaEv
                0x00000000004436e0                _ZN4nawm10setcsfastqEPKcS1_b
                0x0000000000443800                _ZN4nawm10setcsfastqEv
                0x0000000000443be0                _ZN4nawm16setcsfastanphredEPKcS1_
                0x0000000000443c50                _ZN4nawm16setcsfastanphredEv
                0x0000000000444070                _ZN4nawm5setwmEb
                0x00000000004440c0                _ZN4nawm14calcrefentropyEN7ksindex5indexE
                0x00000000004448d0                _ZN4nawm15rcopyrefentropyEPS_N7ksindex5indexE
                0x00000000004449b0                _ZN4nawm4trimEi
 *fill*         0x00000000004449c6        0xa 90909090
 .text          0x00000000004449d0     0x13fb novoalignCSMPI.a(needleCS.o)
                0x00000000004449d0                _ZN6needle5alignEP4nawmPhi
                0x0000000000445610                _ZN6needle12getalignmentEP4nawmRSsPSsS3_S3_
 *fill*         0x0000000000445dcb        0x5 90909090
 .text          0x0000000000445dd0     0x1835 novoalignCSMPI.a(qryopt.o)
                0x0000000000445dd0                _ZN6qryopt12findbestkeysEiiN7ksindex5indexEP6keygen
                0x00000000004466c0                _ZN6qryopt8optimiseEliiN7ksindex5indexEP6keygen
 *fill*         0x0000000000447605        0xb 90909090
 .text          0x0000000000447610     0x132e novoalignCSMPI.a(shortnwCS.o)
                0x0000000000447610                _ZN7shortnw6optmxgEi
                0x0000000000447630                _ZN7shortnw10checkalignEP4nawmilPhRii
                0x00000000004486d0                _ZN7shortnw13clipalignmentERSsS0_R4clipP9novoparam
 *fill*         0x000000000044893e        0x2 90909090
 .text          0x0000000000448940      0x53b novoalignCSMPI.a(cscodes.o)
                0x0000000000448940                _ZNK7cscodes5na2csEmi
                0x00000000004489c0                _ZN7cscodesC1Ev
                0x00000000004489c0                _ZN7cscodesC2Ev
 *fill*         0x0000000000448e7b        0x5 90909090
 .text          0x0000000000448e80     0x18f5 ./tcmalloc/libtcmalloc.a(libtcmalloc_la-tcmalloc.o)
                0x0000000000449060                _ZN22TCMallocImplementation16GetAllocatedSizeEPKv
                0x0000000000449d00                _ZN13TCMallocGuardD1Ev
                0x0000000000449d00                _ZN13TCMallocGuardD2Ev
                0x0000000000449d50                _ZN22TCMallocImplementation14MarkThreadBusyEv
                0x000000000044a680                tc_version
                0x000000000044a6b0                tc_set_new_mode
                0x000000000044a6e0                _ZN13TCMallocGuardC2Ev
                0x000000000044a6e0                _ZN13TCMallocGuardC1Ev
 *fill*         0x000000000044a775        0xb 90909090
 .text._ZN22TCMallocImplementation20SetMemoryReleaseRateEd
                0x000000000044a780        0x9 ./tcmalloc/libtcmalloc.a(libtcmalloc_la-tcmalloc.o)
                0x000000000044a780                _ZN22TCMallocImplementation20SetMemoryReleaseRateEd
 *fill*         0x000000000044a789        0x7 90909090
 .text._ZN22TCMallocImplementation20GetMemoryReleaseRateEv
                0x000000000044a790        0x9 ./tcmalloc/libtcmalloc.a(libtcmalloc_la-tcmalloc.o)
                0x000000000044a790                _ZN22TCMallocImplementation20GetMemoryReleaseRateEv
 *fill*         0x000000000044a799        0x7 90909090
 .text._ZN22TCMallocImplementationD2Ev
                0x000000000044a7a0        0xc ./tcmalloc/libtcmalloc.a(libtcmalloc_la-tcmalloc.o)
                0x000000000044a7a0                _ZN22TCMallocImplementationD1Ev
                0x000000000044a7a0                _ZN22TCMallocImplementationD2Ev
 *fill*         0x000000000044a7ac        0x4 90909090
 .text._ZN22TCMallocImplementationD0Ev
                0x000000000044a7b0       0x19 ./tcmalloc/libtcmalloc.a(libtcmalloc_la-tcmalloc.o)
                0x000000000044a7b0                _ZN22TCMallocImplementationD0Ev
 *fill*         0x000000000044a7c9        0x7 90909090
 .text._ZN22TCMallocImplementation14MarkThreadIdleEv
                0x000000000044a7d0        0x5 ./tcmalloc/libtcmalloc.a(libtcmalloc_la-tcmalloc.o)
                0x000000000044a7d0                _ZN22TCMallocImplementation14MarkThreadIdleEv
 *fill*         0x000000000044a7d5        0xb 90909090
 .text._ZN22TCMallocImplementation13GetHeapSampleEPSs
                0x000000000044a7e0       0x49 ./tcmalloc/libtcmalloc.a(libtcmalloc_la-tcmalloc.o)
                0x000000000044a7e0                _ZN22TCMallocImplementation13GetHeapSampleEPSs
 *fill*         0x000000000044a829        0x7 90909090
 .text._ZN22TCMallocImplementation25GetEstimatedAllocatedSizeEm
                0x000000000044a830       0x52 ./tcmalloc/libtcmalloc.a(libtcmalloc_la-tcmalloc.o)
                0x000000000044a830                _ZN22TCMallocImplementation25GetEstimatedAllocatedSizeEm
 *fill*         0x000000000044a882        0xe 90909090
 .text._ZN22TCMallocImplementation12GetOwnershipEPKv
                0x000000000044a890       0x97 ./tcmalloc/libtcmalloc.a(libtcmalloc_la-tcmalloc.o)
                0x000000000044a890                _ZN22TCMallocImplementation12GetOwnershipEPKv
 *fill*         0x000000000044a927        0x9 90909090
 .text._ZN22TCMallocImplementation18GetSystemAllocatorEv
                0x000000000044a930       0x51 ./tcmalloc/libtcmalloc.a(libtcmalloc_la-tcmalloc.o)
                0x000000000044a930                _ZN22TCMallocImplementation18GetSystemAllocatorEv
 *fill*         0x000000000044a981        0xf 90909090
 .text._ZN22TCMallocImplementation18SetSystemAllocatorEP12SysAllocator
                0x000000000044a990       0x52 ./tcmalloc/libtcmalloc.a(libtcmalloc_la-tcmalloc.o)
                0x000000000044a990                _ZN22TCMallocImplementation18SetSystemAllocatorEP12SysAllocator
 *fill*         0x000000000044a9e2        0xe 90909090
 .text._ZN22TCMallocImplementation25ReadHeapGrowthStackTracesEv
                0x000000000044a9f0      0x220 ./tcmalloc/libtcmalloc.a(libtcmalloc_la-tcmalloc.o)
                0x000000000044a9f0                _ZN22TCMallocImplementation25ReadHeapGrowthStackTracesEv
 .text._ZN14SpinLockHolderD2Ev
                0x000000000044ac10       0x1a ./tcmalloc/libtcmalloc.a(libtcmalloc_la-tcmalloc.o)
                0x000000000044ac10                _ZN14SpinLockHolderD1Ev
                0x000000000044ac10                _ZN14SpinLockHolderD2Ev
 *fill*         0x000000000044ac2a        0x6 90909090
 .text._ZN22TCMallocImplementation18SetNumericPropertyEPKcm
                0x000000000044ac30       0xc1 ./tcmalloc/libtcmalloc.a(libtcmalloc_la-tcmalloc.o)
                0x000000000044ac30                _ZN22TCMallocImplementation18SetNumericPropertyEPKcm
 *fill*         0x000000000044acf1        0xf 90909090
 .text._ZN22TCMallocImplementation6RangesEPvPFvS0_PKN4base11MallocRangeEE
                0x000000000044ad00      0x114 ./tcmalloc/libtcmalloc.a(libtcmalloc_la-tcmalloc.o)
                0x000000000044ad00                _ZN22TCMallocImplementation6RangesEPvPFvS0_PKN4base11MallocRangeEE
 *fill*         0x000000000044ae14        0xc 90909090
 .text._ZN22TCMallocImplementation15ReadStackTracesEPi
                0x000000000044ae20      0x129 ./tcmalloc/libtcmalloc.a(libtcmalloc_la-tcmalloc.o)
                0x000000000044ae20                _ZN22TCMallocImplementation15ReadStackTracesEPi
 *fill*         0x000000000044af49        0x7 90909090
 .text._ZN22TCMallocImplementation15ReleaseToSystemEm
                0x000000000044af50       0xb5 ./tcmalloc/libtcmalloc.a(libtcmalloc_la-tcmalloc.o)
                0x000000000044af50                _ZN22TCMallocImplementation15ReleaseToSystemEm
 *fill*         0x000000000044b005        0xb 90909090
 .text._ZN22TCMallocImplementation8GetStatsEPci
                0x000000000044b010       0x42 ./tcmalloc/libtcmalloc.a(libtcmalloc_la-tcmalloc.o)
                0x000000000044b010                _ZN22TCMallocImplementation8GetStatsEPci
 *fill*         0x000000000044b052        0xe 90909090
 .text._ZN22TCMallocImplementation18GetNumericPropertyEPKcPm
                0x000000000044b060      0x3b3 ./tcmalloc/libtcmalloc.a(libtcmalloc_la-tcmalloc.o)
                0x000000000044b060                _ZN22TCMallocImplementation18GetNumericPropertyEPKcPm
 *fill*         0x000000000044b413        0xd 90909090
 .text._ZNK8tcmalloc8PageHeap13GetDescriptorEm
                0x000000000044b420       0x43 ./tcmalloc/libtcmalloc.a(libtcmalloc_la-tcmalloc.o)
                0x000000000044b420                _ZNK8tcmalloc8PageHeap13GetDescriptorEm
 *fill*         0x000000000044b463        0xd 90909090
 .text._ZN8tcmalloc11ThreadCache8GetCacheEv
                0x000000000044b470       0x4d ./tcmalloc/libtcmalloc.a(libtcmalloc_la-tcmalloc.o)
                0x000000000044b470                _ZN8tcmalloc11ThreadCache8GetCacheEv
 *fill*         0x000000000044b4bd        0x3 90909090
 .text._ZNSt6vectorIN15MallocExtension12FreeListInfoESaIS1_EE13_M_insert_auxEN9__gnu_cxx17__normal_iteratorIPS1_S3_EERKS1_
                0x000000000044b4c0      0x20c ./tcmalloc/libtcmalloc.a(libtcmalloc_la-tcmalloc.o)
                0x000000000044b4c0                _ZNSt6vectorIN15MallocExtension12FreeListInfoESaIS1_EE13_M_insert_auxEN9__gnu_cxx17__normal_iteratorIPS1_S3_EERKS1_
 *fill*         0x000000000044b6cc        0x4 90909090
 .text._ZN22TCMallocImplementation16GetFreeListSizesEPSt6vectorIN15MallocExtension12FreeListInfoESaIS2_EE
                0x000000000044b6d0      0x61d ./tcmalloc/libtcmalloc.a(libtcmalloc_la-tcmalloc.o)
                0x000000000044b6d0                _ZN22TCMallocImplementation16GetFreeListSizesEPSt6vectorIN15MallocExtension12FreeListInfoESaIS2_EE
 *fill*         0x000000000044bced        0x3 90909090
 .text          0x000000000044bcf0        0x0 ./tcmalloc/libtcmalloc.a(atomicops-internals-x86.o)
 .text._Z9LogPrintfiPKcP13__va_list_tag
                0x000000000044bcf0      0x164 ./tcmalloc/libtcmalloc.a(atomicops-internals-x86.o)
                0x000000000044bcf0                _Z9LogPrintfiPKcP13__va_list_tag
 *fill*         0x000000000044be54        0xc 90909090
 .text._Z8RAW_VLOGiPKcz
                0x000000000044be60       0x9a ./tcmalloc/libtcmalloc.a(atomicops-internals-x86.o)
                0x000000000044be60                _Z8RAW_VLOGiPKcz
 *fill*         0x000000000044befa        0x6 90909090
 .text._ZN17GoogleInitializerD2Ev
                0x000000000044bf00       0x32 ./tcmalloc/libtcmalloc.a(atomicops-internals-x86.o)
                0x000000000044bf00                _ZN17GoogleInitializerD2Ev
                0x000000000044bf00                _ZN17GoogleInitializerD1Ev
 *fill*         0x000000000044bf32        0xe 90909090
 .text          0x000000000044bf40      0x132 ./tcmalloc/libtcmalloc.a(dynamic_annotations.o)
                0x000000000044bf40                RunningOnValgrind
                0x000000000044c000                ValgrindSlowdown
 *fill*         0x000000000044c072        0xe 90909090
 .text          0x000000000044c080      0xb8e ./tcmalloc/libtcmalloc.a(libtcmalloc_internal_la-central_freelist.o)
                0x000000000044c080                _ZN8tcmalloc15CentralFreeList4InitEm
                0x000000000044c130                _ZN8tcmalloc15CentralFreeList14ReleaseToSpansEPv
                0x000000000044c300                _ZN8tcmalloc15CentralFreeList18ReleaseListToSpansEPv
                0x000000000044c330                _ZN8tcmalloc15CentralFreeList11ShrinkCacheEib
                0x000000000044c4c0                _ZN8tcmalloc15CentralFreeList20EvictRandomSizeClassEib
                0x000000000044c520                _ZN8tcmalloc15CentralFreeList14MakeCacheSpaceEv
                0x000000000044c5b0                _ZN8tcmalloc15CentralFreeList11InsertRangeEPvS1_i
                0x000000000044c6a0                _ZN8tcmalloc15CentralFreeList14FetchFromSpansEv
                0x000000000044c720                _ZN8tcmalloc15CentralFreeList8PopulateEv
                0x000000000044c980                _ZN8tcmalloc15CentralFreeList18FetchFromSpansSafeEv
                0x000000000044c9b0                _ZN8tcmalloc15CentralFreeList11RemoveRangeEPPvS2_i
                0x000000000044cb20                _ZN8tcmalloc15CentralFreeList9tc_lengthEv
                0x000000000044cb90                _ZN8tcmalloc15CentralFreeList13OverheadBytesEv
 *fill*         0x000000000044cc0e        0x2 90909090
 .text          0x000000000044cc10      0x968 ./tcmalloc/libtcmalloc.a(libtcmalloc_internal_la-common.o)
                0x000000000044cc10                _ZN8tcmalloc16AlignmentForSizeEm
                0x000000000044ce10                _ZN8tcmalloc7SizeMap11NumMoveSizeEm
                0x000000000044ce70                _ZN8tcmalloc7SizeMap4InitEv
                0x000000000044d450                _ZN8tcmalloc13MetaDataAllocEm
                0x000000000044d570                _ZN8tcmalloc21metadata_system_bytesEv
 *fill*         0x000000000044d578        0x8 90909090
 .text          0x000000000044d580      0x530 ./tcmalloc/libtcmalloc.a(libtcmalloc_internal_la-internal_logging.o)
                0x000000000044d590                _ZN8tcmalloc6Logger6AddStrEPKci
                0x000000000044d5e0                _ZN8tcmalloc6Logger6AddNumEmi
                0x000000000044d650                _ZN8tcmalloc6Logger3AddERKNS_7LogItemE
                0x000000000044d750                _ZN8tcmalloc3LogENS_7LogModeEPKciNS_7LogItemES3_S3_S3_
                0x000000000044d9d0                _ZN16TCMalloc_Printer6printfEPKcz
 .text          0x000000000044dab0      0xafc ./tcmalloc/libtcmalloc.a(libtcmalloc_internal_la-malloc_extension.o)
                0x000000000044dab0                _ZN12SysAllocatorD2Ev
                0x000000000044dab0                _ZN12SysAllocatorD1Ev
                0x000000000044dac0                _ZN15MallocExtensionD1Ev
                0x000000000044dac0                _ZN15MallocExtensionD2Ev
                0x000000000044dad0                _ZN15MallocExtension15VerifyAllMemoryEv
                0x000000000044dae0                _ZN15MallocExtension15VerifyNewMemoryEPKv
                0x000000000044daf0                _ZN15MallocExtension20VerifyArrayNewMemoryEPKv
                0x000000000044db00                _ZN15MallocExtension18VerifyMallocMemoryEPKv
                0x000000000044db10                _ZN15MallocExtension18GetNumericPropertyEPKcPm
                0x000000000044db20                _ZN15MallocExtension18SetNumericPropertyEPKcm
                0x000000000044db30                _ZN15MallocExtension8GetStatsEPci
                0x000000000044db40                _ZN15MallocExtension15ReadStackTracesEPi
                0x000000000044db50                _ZN15MallocExtension25ReadHeapGrowthStackTracesEv
                0x000000000044db60                _ZN15MallocExtension14MarkThreadIdleEv
                0x000000000044db70                _ZN15MallocExtension14MarkThreadBusyEv
                0x000000000044db80                _ZN15MallocExtension18GetSystemAllocatorEv
                0x000000000044db90                _ZN15MallocExtension18SetSystemAllocatorEP12SysAllocator
                0x000000000044dba0                _ZN15MallocExtension15ReleaseToSystemEm
                0x000000000044dbb0                _ZN15MallocExtension17ReleaseFreeMemoryEv
                0x000000000044dbd0                _ZN15MallocExtension20SetMemoryReleaseRateEd
                0x000000000044dbe0                _ZN15MallocExtension20GetMemoryReleaseRateEv
                0x000000000044dbf0                _ZN15MallocExtension25GetEstimatedAllocatedSizeEm
                0x000000000044dc00                _ZN15MallocExtension16GetAllocatedSizeEPKv
                0x000000000044dc10                _ZN15MallocExtension12GetOwnershipEPKv
                0x000000000044dc20                _ZN15MallocExtension16GetFreeListSizesEPSt6vectorINS_12FreeListInfoESaIS1_EE
                0x000000000044dc30                _ZN15MallocExtension6RangesEPvPFvS0_PKN4base11MallocRangeEE
                0x000000000044dee0                _ZN15MallocExtension17MallocMemoryStatsEPiPmS0_
                0x000000000044df80                _ZN15MallocExtensionD0Ev
                0x000000000044dfa0                _ZN12SysAllocatorD0Ev
                0x000000000044e0a0                _ZN15MallocExtension19GetHeapGrowthStacksEPSs
                0x000000000044e130                _ZN15MallocExtension13GetHeapSampleEPSs
                0x000000000044e220                _ZN15MallocExtension10InitializeEv
                0x000000000044e2e0                _ZN15MallocExtension8instanceEv
                0x000000000044e310                _ZN15MallocExtension8RegisterEPS_
                0x000000000044e340                MallocExtension_VerifyAllMemory
                0x000000000044e360                MallocExtension_VerifyNewMemory
                0x000000000044e380                MallocExtension_VerifyArrayNewMemory
                0x000000000044e3a0                MallocExtension_VerifyMallocMemory
                0x000000000044e3c0                MallocExtension_MallocMemoryStats
                0x000000000044e410                MallocExtension_GetStats
                0x000000000044e450                MallocExtension_GetNumericProperty
                0x000000000044e490                MallocExtension_SetNumericProperty
                0x000000000044e4d0                MallocExtension_MarkThreadIdle
                0x000000000044e4f0                MallocExtension_MarkThreadBusy
                0x000000000044e510                MallocExtension_ReleaseFreeMemory
                0x000000000044e530                MallocExtension_ReleaseToSystem
                0x000000000044e550                MallocExtension_GetEstimatedAllocatedSize
                0x000000000044e570                MallocExtension_GetAllocatedSize
                0x000000000044e590                MallocExtension_GetOwnership
 *fill*         0x000000000044e5ac        0x4 90909090
 .text          0x000000000044e5b0     0x1ea9 ./tcmalloc/libtcmalloc.a(libtcmalloc_internal_la-malloc_hook.o)
                0x000000000044e620                MallocHook_AddDeleteHook
                0x000000000044e700                MallocHook_RemoveDeleteHook
                0x000000000044e840                MallocHook_AddPreMmapHook
                0x000000000044e920                MallocHook_RemovePreMmapHook
                0x000000000044ea60                MallocHook_SetMmapReplacement
                0x000000000044eb70                MallocHook_RemoveMmapReplacement
                0x000000000044ecb0                MallocHook_AddMmapHook
                0x000000000044ed90                MallocHook_RemoveMmapHook
                0x000000000044eed0                MallocHook_SetMunmapReplacement
                0x000000000044efe0                MallocHook_RemoveMunmapReplacement
                0x000000000044f120                MallocHook_AddMremapHook
                0x000000000044f200                MallocHook_RemoveMremapHook
                0x000000000044f340                MallocHook_AddPreSbrkHook
                0x000000000044f420                MallocHook_RemovePreSbrkHook
                0x000000000044f560                MallocHook_AddSbrkHook
                0x000000000044f640                MallocHook_RemoveSbrkHook
                0x000000000044f780                MallocHook_SetNewHook
                0x000000000044f7b0                MallocHook_SetDeleteHook
                0x000000000044f7e0                MallocHook_SetPreMmapHook
                0x000000000044f810                MallocHook_SetMmapHook
                0x000000000044f840                MallocHook_SetMunmapHook
                0x000000000044f870                MallocHook_SetMremapHook
                0x000000000044f8a0                MallocHook_SetPreSbrkHook
                0x000000000044f8d0                MallocHook_SetSbrkHook
                0x000000000044f900                _ZN10MallocHook20InvokeDeleteHookSlowEPKv
                0x000000000044f980                _ZN10MallocHook21InvokePreMmapHookSlowEPKvmiiil
                0x000000000044fb10                _ZN10MallocHook18InvokeMmapHookSlowEPKvS1_miiil
                0x000000000044fbd0                _ZN10MallocHook25InvokeMmapReplacementSlowEPKvmiiilPPv
                0x000000000044fc60                _ZN10MallocHook27InvokeMunmapReplacementSlowEPKvmPi
                0x000000000044fcd0                _ZN10MallocHook20InvokeMremapHookSlowEPKvS1_mmiS1_
                0x000000000044fd70                _ZN10MallocHook21InvokePreSbrkHookSlowEl
                0x000000000044fe50                _ZN10MallocHook18InvokeSbrkHookSlowEPKvl
                0x000000000044fed0                MallocHook_GetCallerStackTrace
                0x0000000000450050                _ZN10MallocHook12UnhookedMMapEPvmiiil
                0x0000000000450120                _ZN10MallocHook14UnhookedMUnmapEPvm
                0x0000000000450190                MallocHook_AddMunmapHook
                0x00000000004501c0                MallocHook_AddNewHook
                0x00000000004501f0                MallocHook_RemoveMunmapHook
                0x0000000000450220                MallocHook_RemoveNewHook
                0x00000000004502f0                _ZN10MallocHook20InvokeMunmapHookSlowEPKvm
                0x0000000000450360                _ZN10MallocHook17InvokeNewHookSlowEPKvm
 *fill*         0x0000000000450459        0x7 90909090
 .text._Z7RAW_LOGiPKcz
                0x0000000000450460       0x9a ./tcmalloc/libtcmalloc.a(libtcmalloc_internal_la-malloc_hook.o)
                0x0000000000450460                _Z7RAW_LOGiPKcz
 *fill*         0x00000000004504fa        0x6 90909090
 .text._ZNK4base8internal8HookListIPFvPKvmEE5emptyEv
                0x0000000000450500        0xa ./tcmalloc/libtcmalloc.a(libtcmalloc_internal_la-malloc_hook.o)
                0x0000000000450500                _ZNK4base8internal8HookListIPFvPKvmEE5emptyEv
 *fill*         0x000000000045050a        0x6 90909090
 .text._ZN4base8internal8HookListIPFvPKvmEE3AddES5_
                0x0000000000450510       0xb8 ./tcmalloc/libtcmalloc.a(libtcmalloc_internal_la-malloc_hook.o)
                0x0000000000450510                _ZN4base8internal8HookListIPFvPKvmEE3AddES5_
 *fill*         0x00000000004505c8        0x8 90909090
 .text._ZN4base8internal8HookListIPFvPKvmEE6RemoveES5_
                0x00000000004505d0      0x13b ./tcmalloc/libtcmalloc.a(libtcmalloc_internal_la-malloc_hook.o)
                0x00000000004505d0                _ZN4base8internal8HookListIPFvPKvmEE6RemoveES5_
 *fill*         0x000000000045070b        0x5 90909090
 .text._ZNK4base8internal8HookListIPFvPKvmEE8TraverseEPS5_i
                0x0000000000450710       0x4a ./tcmalloc/libtcmalloc.a(libtcmalloc_internal_la-malloc_hook.o)
                0x0000000000450710                _ZNK4base8internal8HookListIPFvPKvmEE8TraverseEPS5_i
 *fill*         0x000000000045075a        0x6 90909090
 .text          0x0000000000450760       0xcc ./tcmalloc/libtcmalloc.a(libtcmalloc_internal_la-maybe_threads.o)
                0x0000000000450760                _Z28perftools_pthread_key_createPjPFvPvE
                0x0000000000450790                _Z29perftools_pthread_getspecificj
                0x00000000004507b0                _Z29perftools_pthread_setspecificjPv
                0x00000000004507d0                _Z22perftools_pthread_oncePiPFvvE
 *fill*         0x000000000045082c        0x4 90909090
 .text          0x0000000000450830     0x16fb ./tcmalloc/libtcmalloc.a(libtcmalloc_internal_la-page_heap.o)
                0x0000000000450830                _ZN8tcmalloc8PageHeapC1Ev
                0x0000000000450830                _ZN8tcmalloc8PageHeapC2Ev
                0x0000000000450920                _ZN8tcmalloc8PageHeap5SplitEPNS_4SpanEm
                0x00000000004509e0                _ZN8tcmalloc8PageHeap17PrependToFreeListEPNS_4SpanE
                0x0000000000450a40                _ZN8tcmalloc8PageHeap18RemoveFromFreeListEPNS_4SpanE
                0x0000000000450a80                _ZN8tcmalloc8PageHeap17MergeIntoFreeListEPNS_4SpanE
                0x0000000000450c40                _ZN8tcmalloc8PageHeap5CarveEPNS_4SpanEm
                0x0000000000450d60                _ZN8tcmalloc8PageHeap21ReleaseLastNormalSpanEPNS0_8SpanListE
                0x0000000000450de0                _ZN8tcmalloc8PageHeap20ReleaseAtLeastNPagesEm
                0x0000000000450ec0                _ZN8tcmalloc8PageHeap19IncrementalScavengeEm
                0x0000000000450f90                _ZN8tcmalloc8PageHeap6DeleteEPNS_4SpanE
                0x0000000000450fe0                _ZN8tcmalloc8PageHeap11EnsureLimitEmb
                0x0000000000451050                _ZN8tcmalloc8PageHeap10AllocLargeEm
                0x0000000000451190                _ZN8tcmalloc8PageHeap23SearchFreeAndLargeListsEm
                0x0000000000451260                _ZN8tcmalloc8PageHeap17RegisterSizeClassEPNS_4SpanEm
                0x00000000004512c0                _ZN8tcmalloc8PageHeap17GetSmallSpanStatsEPNS0_14SmallSpanStatsE
                0x0000000000451330                _ZN8tcmalloc8PageHeap17GetLargeSpanStatsEPNS0_14LargeSpanStatsE
                0x00000000004513c0                _ZN8tcmalloc8PageHeap12GetNextRangeEmPN4base11MallocRangeE
                0x0000000000451550                _ZN8tcmalloc8PageHeap8GrowHeapEm
                0x0000000000451920                _ZN8tcmalloc8PageHeap3NewEm
                0x0000000000451a00                _ZN8tcmalloc8PageHeap5CheckEv
                0x0000000000451a10                _ZN8tcmalloc8PageHeap9CheckListEPNS_4SpanEmmi
                0x0000000000451e70                _ZN8tcmalloc8PageHeap14CheckExpensiveEv
 *fill*         0x0000000000451f2b        0x5 90909090
 .text          0x0000000000451f30      0x1b4 ./tcmalloc/libtcmalloc.a(libtcmalloc_internal_la-sampler.o)
                0x0000000000451f30                _ZN8tcmalloc7Sampler21PopulateFastLog2TableEv
                0x0000000000451f90                _ZN8tcmalloc7Sampler15GetSamplePeriodEv
                0x0000000000451fa0                _ZN8tcmalloc7Sampler11InitStaticsEv
                0x0000000000451fb0                _ZN8tcmalloc7Sampler21PickNextSamplingPointEv
                0x0000000000452080                _ZN8tcmalloc7Sampler4InitEj
 *fill*         0x00000000004520e4        0xc 90909090
 .text          0x00000000004520f0      0x279 ./tcmalloc/libtcmalloc.a(libtcmalloc_internal_la-span.o)
                0x00000000004520f0                _ZN8tcmalloc7NewSpanEmm
                0x00000000004522d0                _ZN8tcmalloc10DeleteSpanEPNS_4SpanE
                0x00000000004522f0                _ZN8tcmalloc8DLL_InitEPNS_4SpanE
                0x0000000000452300                _ZN8tcmalloc10DLL_RemoveEPNS_4SpanE
                0x0000000000452330                _ZN8tcmalloc10DLL_LengthEPKNS_4SpanE
                0x0000000000452350                _ZN8tcmalloc11DLL_PrependEPNS_4SpanES1_
 *fill*         0x0000000000452369        0x7 90909090
 .text          0x0000000000452370      0x607 ./tcmalloc/libtcmalloc.a(libtcmalloc_internal_la-stack_trace_table.o)
                0x0000000000452370                _ZNK8tcmalloc15StackTraceTable6Bucket8KeyEqualEmRKNS_10StackTraceE
                0x00000000004523e0                _ZN8tcmalloc15StackTraceTableC1Ev
                0x00000000004523e0                _ZN8tcmalloc15StackTraceTableC2Ev
                0x0000000000452440                _ZN8tcmalloc15StackTraceTableD2Ev
                0x0000000000452440                _ZN8tcmalloc15StackTraceTableD1Ev
                0x0000000000452460                _ZN8tcmalloc15StackTraceTable8AddTraceERKNS_10StackTraceE
                0x0000000000452740                _ZN8tcmalloc15StackTraceTable23ReadStackTracesAndClearEv
 *fill*         0x0000000000452977        0x9 90909090
 .text          0x0000000000452980      0x4c5 ./tcmalloc/libtcmalloc.a(libtcmalloc_internal_la-static_vars.o)
                0x0000000000452a70                _ZN8tcmalloc6Static14InitStaticVarsEv
 *fill*         0x0000000000452e45        0xb 90909090
 .text          0x0000000000452e50      0x6fa ./tcmalloc/libtcmalloc.a(libtcmalloc_internal_la-system-alloc.o)
                0x0000000000452e50                _ZN19DefaultSysAllocator5AllocEmPmm
                0x0000000000452ee0                _ZN16MmapSysAllocator5AllocEmPmm
                0x0000000000453020                _ZN18DevMemSysAllocator5AllocEmPmm
                0x0000000000453200                _ZN16SbrkSysAllocator5AllocEmPmm
                0x00000000004532f0                _Z24tc_get_sysalloc_overrideP12SysAllocator
                0x0000000000453300                _Z20InitSystemAllocatorsv
                0x00000000004533a0                _Z20TCMalloc_SystemAllocmPmm
                0x00000000004534a0                _Z22TCMalloc_SystemReleasePvm
 *fill*         0x000000000045354a        0x6 90909090
 .text._ZN16SbrkSysAllocatorD2Ev
                0x0000000000453550       0x13 ./tcmalloc/libtcmalloc.a(libtcmalloc_internal_la-system-alloc.o)
                0x0000000000453550                _ZN16SbrkSysAllocatorD1Ev
                0x0000000000453550                _ZN16SbrkSysAllocatorD2Ev
 *fill*         0x0000000000453563        0xd 90909090
 .text._ZN16MmapSysAllocatorD2Ev
                0x0000000000453570       0x13 ./tcmalloc/libtcmalloc.a(libtcmalloc_internal_la-system-alloc.o)
                0x0000000000453570                _ZN16MmapSysAllocatorD2Ev
                0x0000000000453570                _ZN16MmapSysAllocatorD1Ev
 *fill*         0x0000000000453583        0xd 90909090
 .text._ZN18DevMemSysAllocatorD2Ev
                0x0000000000453590       0x13 ./tcmalloc/libtcmalloc.a(libtcmalloc_internal_la-system-alloc.o)
                0x0000000000453590                _ZN18DevMemSysAllocatorD2Ev
                0x0000000000453590                _ZN18DevMemSysAllocatorD1Ev
 *fill*         0x00000000004535a3        0xd 90909090
 .text._ZN19DefaultSysAllocatorD2Ev
                0x00000000004535b0       0x13 ./tcmalloc/libtcmalloc.a(libtcmalloc_internal_la-system-alloc.o)
                0x00000000004535b0                _ZN19DefaultSysAllocatorD1Ev
                0x00000000004535b0                _ZN19DefaultSysAllocatorD2Ev
 *fill*         0x00000000004535c3        0xd 90909090
 .text._ZN16SbrkSysAllocatorD0Ev
                0x00000000004535d0       0x20 ./tcmalloc/libtcmalloc.a(libtcmalloc_internal_la-system-alloc.o)
                0x00000000004535d0                _ZN16SbrkSysAllocatorD0Ev
 .text._ZN16MmapSysAllocatorD0Ev
                0x00000000004535f0       0x20 ./tcmalloc/libtcmalloc.a(libtcmalloc_internal_la-system-alloc.o)
                0x00000000004535f0                _ZN16MmapSysAllocatorD0Ev
 .text._ZN18DevMemSysAllocatorD0Ev
                0x0000000000453610       0x20 ./tcmalloc/libtcmalloc.a(libtcmalloc_internal_la-system-alloc.o)
                0x0000000000453610                _ZN18DevMemSysAllocatorD0Ev
 .text._ZN19DefaultSysAllocatorD0Ev
                0x0000000000453630       0x20 ./tcmalloc/libtcmalloc.a(libtcmalloc_internal_la-system-alloc.o)
                0x0000000000453630                _ZN19DefaultSysAllocatorD0Ev
 .text          0x0000000000453650      0xfd4 ./tcmalloc/libtcmalloc.a(libtcmalloc_internal_la-thread_cache.o)
                0x0000000000453650                _ZN8tcmalloc24CheckIfKernelSupportsTLSEv
                0x00000000004537f0                _ZN8tcmalloc11ThreadCache21FetchFromCentralCacheEmm
                0x00000000004538f0                _ZN8tcmalloc11ThreadCache21ReleaseToCentralCacheEPNS0_8FreeListEmi
                0x0000000000453a40                _ZN8tcmalloc11ThreadCache11ListTooLongEPNS0_8FreeListEm
                0x0000000000453ac0                _ZN8tcmalloc11ThreadCache7CleanupEv
                0x0000000000453b10                _ZN8tcmalloc11ThreadCache24IncreaseCacheLimitLockedEv
                0x0000000000453ba0                _ZN8tcmalloc11ThreadCache18IncreaseCacheLimitEv
                0x0000000000453c10                _ZN8tcmalloc11ThreadCache8ScavengeEv
                0x0000000000453ca0                _ZN8tcmalloc11ThreadCache4InitEm
                0x0000000000453d60                _ZN8tcmalloc11ThreadCache15GetSamplePeriodEv
                0x0000000000453d70                _ZN8tcmalloc11ThreadCache10InitModuleEv
                0x0000000000453ef0                _ZN8tcmalloc11ThreadCache7InitTSDEv
                0x0000000000453f20                _ZN8tcmalloc11ThreadCache7NewHeapEm
                0x00000000004540b0                _ZN8tcmalloc11ThreadCache22CreateCacheIfNecessaryEv
                0x00000000004541b0                _ZN8tcmalloc11ThreadCache11DeleteCacheEPS0_
                0x00000000004542c0                _ZN8tcmalloc11ThreadCache18DestroyThreadCacheEPv
                0x00000000004542f0                _ZN8tcmalloc11ThreadCache10BecomeIdleEv
                0x00000000004543f0                _ZN8tcmalloc11ThreadCache27RecomputePerThreadCacheSizeEv
                0x0000000000454590                _ZN8tcmalloc11ThreadCache14GetThreadStatsEPmS1_
                0x00000000004545e0                _ZN8tcmalloc11ThreadCache29set_overall_thread_cache_sizeEm
 *fill*         0x0000000000454624        0xc 90909090
 .text          0x0000000000454630       0x8c ./tcmalloc/libtcmalloc.a(logging.o)
                0x0000000000454630                _Z17RawOpenForWritingPKc
                0x0000000000454650                _Z8RawWriteiPKcm
                0x00000000004546a0                _Z8RawClosei
 *fill*         0x00000000004546bc        0x4 90909090
 .text          0x00000000004546c0      0x16d ./tcmalloc/libtcmalloc.a(spinlock.o)
                0x00000000004546c0                _ZN4base25SubmitSpinLockProfileDataEPKvl
                0x00000000004546d0                _ZN8SpinLock8SpinLoopElPi
                0x0000000000454720                _ZN8SpinLock8SlowLockEv
                0x00000000004547e0                _ZN8SpinLock10SlowUnlockEm
 *fill*         0x000000000045482d        0x3 90909090
 .text          0x0000000000454830      0x1eb ./tcmalloc/libtcmalloc.a(spinlock_internal.o)
                0x0000000000454830                _ZN4base8internal13SpinLockDelayEPViii
                0x0000000000454920                _ZN4base8internal12SpinLockWakeEPVib
                0x0000000000454970                _ZN4base8internal12SpinLockWaitEPViiPKNS0_22SpinLockWaitTransitionE
 *fill*         0x0000000000454a1b        0x5 90909090
 .text          0x0000000000454a20      0x5fd ./tcmalloc/libtcmalloc.a(stacktrace.o)
                0x0000000000454a20                _Z13GetStackTracePPvii
                0x0000000000454b60                _Z14GetStackFramesPPvPiii
                0x0000000000454d20                _Z24GetStackTraceWithContextPPviiPKv
                0x0000000000454e60                _Z25GetStackFramesWithContextPPvPiiiPKv
 *fill*         0x000000000045501d        0x3 90909090
 .text          0x0000000000455020     0x171d ./tcmalloc/libtcmalloc.a(sysinfo.o)
                0x00000000004553f0                _Z16GetenvBeforeMainPKc
                0x0000000000455590                _Z20GetUniquePathFromEnvPKcPc
                0x0000000000455640                _Z20SleepForMillisecondsi
                0x0000000000455b90                _Z15CyclesPerSecondv
                0x0000000000455bb0                _Z7NumCPUsv
                0x0000000000455bd0                _Z15HasPosixThreadsv
                0x0000000000455c30                _ZN16ProcMapsIterator4InitEiPNS_6BufferEb
                0x0000000000455d10                _ZN16ProcMapsIteratorC1EiPNS_6BufferEb
                0x0000000000455d10                _ZN16ProcMapsIteratorC2EiPNS_6BufferEb
                0x0000000000455d20                _ZN16ProcMapsIteratorC1EiPNS_6BufferE
                0x0000000000455d20                _ZN16ProcMapsIteratorC2EiPNS_6BufferE
                0x0000000000455d30                _ZN16ProcMapsIteratorC2Ei
                0x0000000000455d30                _ZN16ProcMapsIteratorC1Ei
                0x0000000000455d40                _ZN16ProcMapsIteratorD2Ev
                0x0000000000455d40                _ZN16ProcMapsIteratorD1Ev
                0x0000000000455d70                _ZNK16ProcMapsIterator5ValidEv
                0x0000000000455d80                _ZN16ProcMapsIterator7NextExtEPmS0_PPcS0_PlS2_S0_S0_S0_S0_S0_
                0x0000000000456310                _ZN16ProcMapsIterator4NextEPmS0_PPcS0_PlS2_
                0x0000000000456360                _ZN16ProcMapsIterator10FormatLineEPcimmPKcmlS2_m
                0x0000000000456500                _ZN8tcmalloc16FillProcSelfMapsEPciPb
                0x0000000000456630                _ZN8tcmalloc16DumpProcSelfMapsEi
 *fill*         0x000000000045673d        0x3 90909090
 .text          0x0000000000456740     0x4b05 ./tcmalloc/libtcmalloc.a(libtcmalloc_la-heap-checker.o)
                0x0000000000456be0                ProfilingIsEnabledForAllThreads
                0x0000000000456bf0                _ZN15HeapLeakChecker8DisablerC2Ev
                0x0000000000456bf0                _ZN15HeapLeakChecker8DisablerC1Ev
                0x0000000000456c20                _ZN15HeapLeakChecker8DisablerD1Ev
                0x0000000000456c20                _ZN15HeapLeakChecker8DisablerD2Ev
                0x0000000000456c60                _ZN15HeapLeakChecker15DisableChecksInEPKc
                0x0000000000456c80                _ZN15HeapLeakChecker14UnIgnoreObjectEPKv
                0x0000000000456e20                _ZN15HeapLeakChecker21MakeProfileNameLockedEv
                0x0000000000456ee0                _ZNK15HeapLeakChecker11BytesLeakedEv
                0x0000000000456f50                _ZNK15HeapLeakChecker13ObjectsLeakedEv
                0x0000000000456fc0                _ZN15HeapLeakCheckerD1Ev
                0x0000000000456fc0                _ZN15HeapLeakCheckerD2Ev
                0x00000000004570a0                _ZN15HeapLeakChecker8IsActiveEv
                0x00000000004570f0                _ZN11HeapCleaner15RunHeapCleanupsEv
                0x0000000000457170                _ZN15HeapLeakChecker13GlobalCheckerEv
                0x00000000004571d0                _ZN15HeapLeakChecker17CancelGlobalCheckEv
                0x0000000000457250                _ZN15HeapLeakChecker24BeforeConstructorsLockedEv
                0x0000000000457370                _Z34HeapLeakChecker_BeforeConstructorsv
                0x0000000000457480                MallocHook_InitAtFirstAllocation_HeapLeakChecker
                0x0000000000457490                _ZN15HeapLeakChecker14GetAllocCallerEPv
                0x0000000000457560                _ZN15HeapLeakChecker23IgnoreLiveObjectsLockedEPKcS1_
                0x0000000000457b20                _ZN11HeapCleanerC1EPFvvE
                0x0000000000457b20                _ZN11HeapCleanerC2EPFvvE
                0x0000000000458180                _ZN15HeapLeakChecker14DoIgnoreObjectEPKv
                0x0000000000458330                _ZN15HeapLeakChecker6CreateEPKcb
                0x0000000000458590                _ZN15HeapLeakCheckerC2Ev
                0x0000000000458590                _ZN15HeapLeakCheckerC1Ev
                0x00000000004585e0                _ZN15HeapLeakCheckerC2EPKc
                0x00000000004585e0                _ZN15HeapLeakCheckerC1EPKc
                0x0000000000458630                _ZN15HeapLeakChecker32IgnoreNonThreadLiveObjectsLockedEv
                0x0000000000458dd0                _ZN15HeapLeakChecker19TurnItselfOffLockedEv
                0x0000000000458fd0                _ZN15HeapLeakChecker25DisableChecksFromToLockedEPKvS1_i
                0x0000000000459140                _ZN15HeapLeakChecker26DisableLibraryAllocsLockedEPKcmm
                0x0000000000459300                _ZN15HeapLeakChecker17UseProcMapsLockedENS_12ProcMapsTaskE
                0x00000000004598d0                _Z33HeapLeakChecker_InternalInitStartv
                0x000000000045a130                _ZN15HeapLeakChecker23IgnoreLiveThreadsLockedEPviPiP13__va_list_tag
                0x000000000045a3d0                _ZN15HeapLeakChecker26IgnoreAllLiveObjectsLockedEPKv
                0x000000000045a750                _ZN15HeapLeakChecker9DoNoLeaksENS_15ShouldSymbolizeE
                0x000000000045af10                _ZN15HeapLeakChecker27NoGlobalLeaksMaybeSymbolizeENS_15ShouldSymbolizeE
                0x000000000045af80                _ZN15HeapLeakChecker13NoGlobalLeaksEv
                0x000000000045af90                _ZN15HeapLeakChecker15DoMainHeapCheckEv
                0x000000000045b070                _Z32HeapLeakChecker_AfterDestructorsv
                0x000000000045b180                _Z31HeapLeakChecker_RunHeapCleanupsv
 *fill*         0x000000000045b245        0xb 90909090
 .text._ZN15HeapLeakChecker9Allocator8AllocateEm
                0x000000000045b250       0x21 ./tcmalloc/libtcmalloc.a(libtcmalloc_la-heap-checker.o)
                0x000000000045b250                _ZN15HeapLeakChecker9Allocator8AllocateEm
 *fill*         0x000000000045b271        0xf 90909090
 .text._ZN15HeapLeakChecker9Allocator4FreeEPv
                0x000000000045b280       0x11 ./tcmalloc/libtcmalloc.a(libtcmalloc_la-heap-checker.o)
                0x000000000045b280                _ZN15HeapLeakChecker9Allocator4FreeEPv
 *fill*         0x000000000045b291        0xf 90909090
 .text._ZNSbIcSt11char_traitsIcE13STL_AllocatorIcN15HeapLeakChecker9AllocatorEEED2Ev
                0x000000000045b2a0       0x38 ./tcmalloc/libtcmalloc.a(libtcmalloc_la-heap-checker.o)
                0x000000000045b2a0                _ZNSbIcSt11char_traitsIcE13STL_AllocatorIcN15HeapLeakChecker9AllocatorEEED2Ev
                0x000000000045b2a0                _ZNSbIcSt11char_traitsIcE13STL_AllocatorIcN15HeapLeakChecker9AllocatorEEED1Ev
 *fill*         0x000000000045b2d8        0x8 90909090
 .text._ZNSt4pairIKSbIcSt11char_traitsIcE13STL_AllocatorIcN15HeapLeakChecker9AllocatorEEESt6vectorI11AllocObjectS2_IS9_S4_EEED2Ev
                0x000000000045b2e0       0x78 ./tcmalloc/libtcmalloc.a(libtcmalloc_la-heap-checker.o)
                0x000000000045b2e0                _ZNSt4pairIKSbIcSt11char_traitsIcE13STL_AllocatorIcN15HeapLeakChecker9AllocatorEEESt6vectorI11AllocObjectS2_IS9_S4_EEED2Ev
                0x000000000045b2e0                _ZNSt4pairIKSbIcSt11char_traitsIcE13STL_AllocatorIcN15HeapLeakChecker9AllocatorEEESt6vectorI11AllocObjectS2_IS9_S4_EEED1Ev
 *fill*         0x000000000045b358        0x8 90909090
 .text._ZNSt6vectorI11AllocObject13STL_AllocatorIS0_N15HeapLeakChecker9AllocatorEEE13_M_insert_auxEN9__gnu_cxx17__normal_iteratorIPS0_S5_EERKS0_
                0x000000000045b360      0x2ac ./tcmalloc/libtcmalloc.a(libtcmalloc_la-heap-checker.o)
                0x000000000045b360                _ZNSt6vectorI11AllocObject13STL_AllocatorIS0_N15HeapLeakChecker9AllocatorEEE13_M_insert_auxEN9__gnu_cxx17__normal_iteratorIPS0_S5_EERKS0_
 *fill*         0x000000000045b60c        0x4 90909090
 .text._ZNSt6vectorIPv13STL_AllocatorIS0_N15HeapLeakChecker9AllocatorEEE13_M_insert_auxEN9__gnu_cxx17__normal_iteratorIPS0_S5_EERKS0_
                0x000000000045b610      0x20d ./tcmalloc/libtcmalloc.a(libtcmalloc_la-heap-checker.o)
                0x000000000045b610                _ZNSt6vectorIPv13STL_AllocatorIS0_N15HeapLeakChecker9AllocatorEEE13_M_insert_auxEN9__gnu_cxx17__normal_iteratorIPS0_S5_EERKS0_
 *fill*         0x000000000045b81d        0x3 90909090
 .text._ZNSt6vectorIPFvvESaIS1_EE13_M_insert_auxEN9__gnu_cxx17__normal_iteratorIPS1_S3_EERKS1_
                0x000000000045b820      0x1ca ./tcmalloc/libtcmalloc.a(libtcmalloc_la-heap-checker.o)
                0x000000000045b820                _ZNSt6vectorIPFvvESaIS1_EE13_M_insert_auxEN9__gnu_cxx17__normal_iteratorIPS1_S3_EERKS1_
 *fill*         0x000000000045b9ea        0x6 90909090
 .text._ZNSt8_Rb_treeImmSt9_IdentityImESt4lessImE13STL_AllocatorImN15HeapLeakChecker9AllocatorEEE10_M_insert_EPKSt18_Rb_tree_node_baseSB_RKm
                0x000000000045b9f0       0xbf ./tcmalloc/libtcmalloc.a(libtcmalloc_la-heap-checker.o)
                0x000000000045b9f0                _ZNSt8_Rb_treeImmSt9_IdentityImESt4lessImE13STL_AllocatorImN15HeapLeakChecker9AllocatorEEE10_M_insert_EPKSt18_Rb_tree_node_baseSB_RKm
 *fill*         0x000000000045baaf        0x1 90909090
 .text._ZNSt8_Rb_treeImmSt9_IdentityImESt4lessImE13STL_AllocatorImN15HeapLeakChecker9AllocatorEEE16_M_insert_uniqueERKm
                0x000000000045bab0       0xaf ./tcmalloc/libtcmalloc.a(libtcmalloc_la-heap-checker.o)
                0x000000000045bab0                _ZNSt8_Rb_treeImmSt9_IdentityImESt4lessImE13STL_AllocatorImN15HeapLeakChecker9AllocatorEEE16_M_insert_uniqueERKm
 *fill*         0x000000000045bb5f        0x1 90909090
 .text._ZNSbIcSt11char_traitsIcE13STL_AllocatorIcN15HeapLeakChecker9AllocatorEEEC2ERKS5_
                0x000000000045bb60       0xda ./tcmalloc/libtcmalloc.a(libtcmalloc_la-heap-checker.o)
                0x000000000045bb60                _ZNSbIcSt11char_traitsIcE13STL_AllocatorIcN15HeapLeakChecker9AllocatorEEEC2ERKS5_
                0x000000000045bb60                _ZNSbIcSt11char_traitsIcE13STL_AllocatorIcN15HeapLeakChecker9AllocatorEEEC1ERKS5_
 *fill*         0x000000000045bc3a        0x6 90909090
 .text._ZNSt8_Rb_treeImSt4pairIKmmESt10_Select1stIS2_ESt4lessImE13STL_AllocatorIS2_N15HeapLeakChecker9AllocatorEEE8_M_eraseEPSt13_Rb_tree_nodeIS2_E
                0x000000000045bc40       0x44 ./tcmalloc/libtcmalloc.a(libtcmalloc_la-heap-checker.o)
                0x000000000045bc40                _ZNSt8_Rb_treeImSt4pairIKmmESt10_Select1stIS2_ESt4lessImE13STL_AllocatorIS2_N15HeapLeakChecker9AllocatorEEE8_M_eraseEPSt13_Rb_tree_nodeIS2_E
 *fill*         0x000000000045bc84        0xc 90909090
 .text._ZNSt8_Rb_treeImSt4pairIKmmESt10_Select1stIS2_ESt4lessImE13STL_AllocatorIS2_N15HeapLeakChecker9AllocatorEEE10_M_insert_EPKSt18_Rb_tree_node_baseSE_RKS2_
                0x000000000045bc90       0xc7 ./tcmalloc/libtcmalloc.a(libtcmalloc_la-heap-checker.o)
                0x000000000045bc90                _ZNSt8_Rb_treeImSt4pairIKmmESt10_Select1stIS2_ESt4lessImE13STL_AllocatorIS2_N15HeapLeakChecker9AllocatorEEE10_M_insert_EPKSt18_Rb_tree_node_baseSE_RKS2_
 *fill*         0x000000000045bd57        0x9 90909090
 .text._ZNSt8_Rb_treeImSt4pairIKmmESt10_Select1stIS2_ESt4lessImE13STL_AllocatorIS2_N15HeapLeakChecker9AllocatorEEE16_M_insert_uniqueERKS2_
                0x000000000045bd60       0xaf ./tcmalloc/libtcmalloc.a(libtcmalloc_la-heap-checker.o)
                0x000000000045bd60                _ZNSt8_Rb_treeImSt4pairIKmmESt10_Select1stIS2_ESt4lessImE13STL_AllocatorIS2_N15HeapLeakChecker9AllocatorEEE16_M_insert_uniqueERKS2_
 *fill*         0x000000000045be0f        0x1 90909090
 .text._ZNSt8_Rb_treeISbIcSt11char_traitsIcE13STL_AllocatorIcN15HeapLeakChecker9AllocatorEEESt4pairIKS6_St6vectorI11AllocObjectS2_ISA_S4_EEESt10_Select1stISD_ESt4lessIS6_ES2_ISD_S4_EE8_M_eraseEPSt13_Rb_tree_nodeISD_E
                0x000000000045be10       0xb1 ./tcmalloc/libtcmalloc.a(libtcmalloc_la-heap-checker.o)
                0x000000000045be10                _ZNSt8_Rb_treeISbIcSt11char_traitsIcE13STL_AllocatorIcN15HeapLeakChecker9AllocatorEEESt4pairIKS6_St6vectorI11AllocObjectS2_ISA_S4_EEESt10_Select1stISD_ESt4lessIS6_ES2_ISD_S4_EE8_M_eraseEPSt13_Rb_tree_nodeISD_E
 *fill*         0x000000000045bec1        0xf 90909090
 .text._ZNSt8_Rb_treeImmSt9_IdentityImESt4lessImE13STL_AllocatorImN15HeapLeakChecker9AllocatorEEE8_M_eraseEPSt13_Rb_tree_nodeImE
                0x000000000045bed0       0x44 ./tcmalloc/libtcmalloc.a(libtcmalloc_la-heap-checker.o)
                0x000000000045bed0                _ZNSt8_Rb_treeImmSt9_IdentityImESt4lessImE13STL_AllocatorImN15HeapLeakChecker9AllocatorEEE8_M_eraseEPSt13_Rb_tree_nodeImE
 *fill*         0x000000000045bf14        0xc 90909090
 .text._ZNSt8_Rb_treeImSt4pairIKmN15HeapLeakChecker10RangeValueEESt10_Select1stIS4_ESt4lessImE13STL_AllocatorIS4_NS2_9AllocatorEEE8_M_eraseEPSt13_Rb_tree_nodeIS4_E
                0x000000000045bf20       0x44 ./tcmalloc/libtcmalloc.a(libtcmalloc_la-heap-checker.o)
                0x000000000045bf20                _ZNSt8_Rb_treeImSt4pairIKmN15HeapLeakChecker10RangeValueEESt10_Select1stIS4_ESt4lessImE13STL_AllocatorIS4_NS2_9AllocatorEEE8_M_eraseEPSt13_Rb_tree_nodeIS4_E
 *fill*         0x000000000045bf64        0xc 90909090
 .text._ZNSt8_Rb_treeImSt4pairIKmN15HeapLeakChecker10RangeValueEESt10_Select1stIS4_ESt4lessImE13STL_AllocatorIS4_NS2_9AllocatorEEE10_M_insert_EPKSt18_Rb_tree_node_baseSF_RKS4_
                0x000000000045bf70       0xd3 ./tcmalloc/libtcmalloc.a(libtcmalloc_la-heap-checker.o)
                0x000000000045bf70                _ZNSt8_Rb_treeImSt4pairIKmN15HeapLeakChecker10RangeValueEESt10_Select1stIS4_ESt4lessImE13STL_AllocatorIS4_NS2_9AllocatorEEE10_M_insert_EPKSt18_Rb_tree_node_baseSF_RKS4_
 *fill*         0x000000000045c043        0xd 90909090
 .text._ZNSt8_Rb_treeImSt4pairIKmN15HeapLeakChecker10RangeValueEESt10_Select1stIS4_ESt4lessImE13STL_AllocatorIS4_NS2_9AllocatorEEE16_M_insert_uniqueERKS4_
                0x000000000045c050       0xaf ./tcmalloc/libtcmalloc.a(libtcmalloc_la-heap-checker.o)
                0x000000000045c050                _ZNSt8_Rb_treeImSt4pairIKmN15HeapLeakChecker10RangeValueEESt10_Select1stIS4_ESt4lessImE13STL_AllocatorIS4_NS2_9AllocatorEEE16_M_insert_uniqueERKS4_
 *fill*         0x000000000045c0ff        0x1 90909090
 .text._ZNSbIcSt11char_traitsIcE13STL_AllocatorIcN15HeapLeakChecker9AllocatorEEE12_S_constructIPKcEEPcT_SA_RKS4_St20forward_iterator_tag
                0x000000000045c100       0xe7 ./tcmalloc/libtcmalloc.a(libtcmalloc_la-heap-checker.o)
                0x000000000045c100                _ZNSbIcSt11char_traitsIcE13STL_AllocatorIcN15HeapLeakChecker9AllocatorEEE12_S_constructIPKcEEPcT_SA_RKS4_St20forward_iterator_tag
 *fill*         0x000000000045c1e7        0x9 90909090
 .text._ZNSt8_Rb_treeISbIcSt11char_traitsIcE13STL_AllocatorIcN15HeapLeakChecker9AllocatorEEESt4pairIKS6_St6vectorI11AllocObjectS2_ISA_S4_EEESt10_Select1stISD_ESt4lessIS6_ES2_ISD_S4_EE10_M_insert_EPKSt18_Rb_tree_node_baseSM_RKSD_
                0x000000000045c1f0      0x1fb ./tcmalloc/libtcmalloc.a(libtcmalloc_la-heap-checker.o)
                0x000000000045c1f0                _ZNSt8_Rb_treeISbIcSt11char_traitsIcE13STL_AllocatorIcN15HeapLeakChecker9AllocatorEEESt4pairIKS6_St6vectorI11AllocObjectS2_ISA_S4_EEESt10_Select1stISD_ESt4lessIS6_ES2_ISD_S4_EE10_M_insert_EPKSt18_Rb_tree_node_baseSM_RKSD_
 *fill*         0x000000000045c3eb        0x5 90909090
 .text._ZNSt8_Rb_treeISbIcSt11char_traitsIcE13STL_AllocatorIcN15HeapLeakChecker9AllocatorEEESt4pairIKS6_St6vectorI11AllocObjectS2_ISA_S4_EEESt10_Select1stISD_ESt4lessIS6_ES2_ISD_S4_EE16_M_insert_uniqueERKSD_
                0x000000000045c3f0      0x156 ./tcmalloc/libtcmalloc.a(libtcmalloc_la-heap-checker.o)
                0x000000000045c3f0                _ZNSt8_Rb_treeISbIcSt11char_traitsIcE13STL_AllocatorIcN15HeapLeakChecker9AllocatorEEESt4pairIKS6_St6vectorI11AllocObjectS2_ISA_S4_EEESt10_Select1stISD_ESt4lessIS6_ES2_ISD_S4_EE16_M_insert_uniqueERKSD_
 *fill*         0x000000000045c546        0xa 90909090
 .text._ZNSt8_Rb_treeISbIcSt11char_traitsIcE13STL_AllocatorIcN15HeapLeakChecker9AllocatorEEESt4pairIKS6_St6vectorI11AllocObjectS2_ISA_S4_EEESt10_Select1stISD_ESt4lessIS6_ES2_ISD_S4_EE17_M_insert_unique_ESt23_Rb_tree_const_iteratorISD_ERKSD_
                0x000000000045c550      0x2a8 ./tcmalloc/libtcmalloc.a(libtcmalloc_la-heap-checker.o)
                0x000000000045c550                _ZNSt8_Rb_treeISbIcSt11char_traitsIcE13STL_AllocatorIcN15HeapLeakChecker9AllocatorEEESt4pairIKS6_St6vectorI11AllocObjectS2_ISA_S4_EEESt10_Select1stISD_ESt4lessIS6_ES2_ISD_S4_EE17_M_insert_unique_ESt23_Rb_tree_const_iteratorISD_ERKSD_
 .text          0x000000000045c7f8        0x0 ./tcmalloc/libtcmalloc.a(libtcmalloc_la-heap-checker-bcad.o)
 *fill*         0x000000000045c7f8        0x8 90909090
 .text._ZN28HeapLeakCheckerGlobalPrePostD2Ev
                0x000000000045c800       0x2e ./tcmalloc/libtcmalloc.a(libtcmalloc_la-heap-checker-bcad.o)
                0x000000000045c800                _ZN28HeapLeakCheckerGlobalPrePostD1Ev
                0x000000000045c800                _ZN28HeapLeakCheckerGlobalPrePostD2Ev
 *fill*         0x000000000045c82e        0x2 90909090
 .text          0x000000000045c830     0x1dc4 ./tcmalloc/libtcmalloc.a(libtcmalloc_internal_la-heap-profile-table.o)
                0x000000000045c850                _ZN16HeapProfileTable23DeallocateAllocationMapEP10AddressMapINS_10AllocValueEE
                0x000000000045c8b0                _ZN16HeapProfileTable21DeallocateBucketTableEPPNS_6BucketE
                0x000000000045c920                _ZN16HeapProfileTableD1Ev
                0x000000000045c920                _ZN16HeapProfileTableD2Ev
                0x000000000045c980                _ZN16HeapProfileTable9GetBucketEiPKPKvPPNS_6BucketEPi
                0x000000000045cba0                _ZN16HeapProfileTable19GetCallerStackTraceEiPPv
                0x000000000045cbc0                _ZN16HeapProfileTable10RecordFreeEPKv
                0x000000000045cc70                _ZNK16HeapProfileTable9FindAllocEPKvPm
                0x000000000045cd00                _ZNK16HeapProfileTable16FindAllocDetailsEPKvPNS_9AllocInfoE
                0x000000000045cdb0                _ZN16HeapProfileTable10MarkAsLiveEPKv
                0x000000000045ce40                _ZN16HeapProfileTable13MarkAsIgnoredEPKv
                0x000000000045cec0                _ZN16HeapProfileTable13UnparseBucketERKNS_6BucketEPciiPKcPNS_5StatsE
                0x000000000045d000                _ZN16HeapProfileTable13ClearMMapDataEv
                0x000000000045d0c0                _ZN16HeapProfileTable12WriteProfileEPKcRKNS_6BucketEP10AddressMapINS_10AllocValueEE
                0x000000000045d2d0                _ZN16HeapProfileTable18CleanupOldProfilesEPKc
                0x000000000045d510                _ZN16HeapProfileTable15ReleaseSnapshotEPNS_8SnapshotE
                0x000000000045d550                _ZN16HeapProfileTable8Snapshot12ReportObjectEPKvPNS_10AllocValueEPc
                0x000000000045d570                _ZN16HeapProfileTable8Snapshot23ReportIndividualObjectsEv
                0x000000000045d600                _ZN16HeapProfileTableC2EPFPvmEPFvS0_E
                0x000000000045d600                _ZN16HeapProfileTableC1EPFPvmEPFvS0_E
                0x000000000045d720                _ZN16HeapProfileTable13AddToSnapshotEPKvPNS_10AllocValueEPNS_8SnapshotE
                0x000000000045d770                _ZN16HeapProfileTable12TakeSnapshotEv
                0x000000000045d890                _ZN16HeapProfileTable12AddIfNonLiveEPKvPNS_10AllocValueEPNS_14AddNonLiveArgsE
                0x000000000045d950                _ZN16HeapProfileTable15NonLiveSnapshotEPNS_8SnapshotE
                0x000000000045dab0                _ZN16HeapProfileTable15RefreshMMapDataEv
                0x000000000045dba0                _ZN16HeapProfileTable11RecordAllocEPKvmiPKS1_
                0x000000000045dc10                _ZNK16HeapProfileTable15FindInsideAllocEPKvmPS1_Pm
                0x000000000045dc40                _ZN16HeapProfileTable8Snapshot14ReportCallbackEPKvPNS_10AllocValueEPNS0_11ReportStateE
                0x000000000045dce0                _ZNK16HeapProfileTable20MakeSortedBucketListEv
                0x000000000045de80                _ZNK16HeapProfileTable18FillOrderedProfileEPci
                0x000000000045e0b0                _ZNK16HeapProfileTable27IterateOrderedAllocContextsEPFvRKNS_16AllocContextInfoEE
                0x000000000045e140                _ZN16HeapProfileTable8Snapshot11ReportLeaksEPKcS2_b
 *fill*         0x000000000045e5f4        0xc 90909090
 .text._ZN16HeapProfileTable14AllocValueSizeERKNS_10AllocValueE
                0x000000000045e600        0x4 ./tcmalloc/libtcmalloc.a(libtcmalloc_internal_la-heap-profile-table.o)
                0x000000000045e600                _ZN16HeapProfileTable14AllocValueSizeERKNS_10AllocValueE
 *fill*         0x000000000045e604        0xc 90909090
 .text._ZN10AddressMapIN16HeapProfileTable10AllocValueEEC2EPFPvmEPFvS3_E
                0x000000000045e610       0x64 ./tcmalloc/libtcmalloc.a(libtcmalloc_internal_la-heap-profile-table.o)
                0x000000000045e610                _ZN10AddressMapIN16HeapProfileTable10AllocValueEEC2EPFPvmEPFvS3_E
                0x000000000045e610                _ZN10AddressMapIN16HeapProfileTable10AllocValueEEC1EPFPvmEPFvS3_E
 *fill*         0x000000000045e674        0xc 90909090
 .text._ZN10AddressMapIN16HeapProfileTable10AllocValueEE6InsertEPKvS1_
                0x000000000045e680      0x219 ./tcmalloc/libtcmalloc.a(libtcmalloc_internal_la-heap-profile-table.o)
                0x000000000045e680                _ZN10AddressMapIN16HeapProfileTable10AllocValueEE6InsertEPKvS1_
 *fill*         0x000000000045e899        0x7 90909090
 .text._ZN10AddressMapIN16HeapProfileTable10AllocValueEE10FindInsideEPFmRKS1_EmPKvPS8_
                0x000000000045e8a0      0x169 ./tcmalloc/libtcmalloc.a(libtcmalloc_internal_la-heap-profile-table.o)
                0x000000000045e8a0                _ZN10AddressMapIN16HeapProfileTable10AllocValueEE10FindInsideEPFmRKS1_EmPKvPS8_
 *fill*         0x000000000045ea09        0x7 90909090
 .text._ZNSt8_Rb_treeIPKvSt4pairIKS1_PKcESt10_Select1stIS6_ESt4lessIS1_ESaIS6_EE8_M_eraseEPSt13_Rb_tree_nodeIS6_E
                0x000000000045ea10       0x3d ./tcmalloc/libtcmalloc.a(libtcmalloc_internal_la-heap-profile-table.o)
                0x000000000045ea10                _ZNSt8_Rb_treeIPKvSt4pairIKS1_PKcESt10_Select1stIS6_ESt4lessIS1_ESaIS6_EE8_M_eraseEPSt13_Rb_tree_nodeIS6_E
 *fill*         0x000000000045ea4d        0x3 90909090
 .text._ZNSt8_Rb_treeIPN16HeapProfileTable6BucketESt4pairIKS2_NS0_8Snapshot5EntryEESt10_Select1stIS7_ESt4lessIS2_ESaIS7_EE8_M_eraseEPSt13_Rb_tree_nodeIS7_E
                0x000000000045ea50       0x3d ./tcmalloc/libtcmalloc.a(libtcmalloc_internal_la-heap-profile-table.o)
                0x000000000045ea50                _ZNSt8_Rb_treeIPN16HeapProfileTable6BucketESt4pairIKS2_NS0_8Snapshot5EntryEESt10_Select1stIS7_ESt4lessIS2_ESaIS7_EE8_M_eraseEPSt13_Rb_tree_nodeIS7_E
 *fill*         0x000000000045ea8d        0x3 90909090
 .text._ZSt16__insertion_sortIPPN16HeapProfileTable6BucketEPFbPNS0_5StatsES5_EEvT_S8_T0_
                0x000000000045ea90      0x101 ./tcmalloc/libtcmalloc.a(libtcmalloc_internal_la-heap-profile-table.o)
                0x000000000045ea90                _ZSt16__insertion_sortIPPN16HeapProfileTable6BucketEPFbPNS0_5StatsES5_EEvT_S8_T0_
 *fill*         0x000000000045eb91        0xf 90909090
 .text._ZSt16__insertion_sortIPN16HeapProfileTable8Snapshot5EntryEEvT_S4_
                0x000000000045eba0       0xbd ./tcmalloc/libtcmalloc.a(libtcmalloc_internal_la-heap-profile-table.o)
                0x000000000045eba0                _ZSt16__insertion_sortIPN16HeapProfileTable8Snapshot5EntryEEvT_S4_
 *fill*         0x000000000045ec5d        0x3 90909090
 .text._ZSt19__move_median_firstIPPN16HeapProfileTable6BucketEPFbPNS0_5StatsES5_EEvT_S8_S8_T0_
                0x000000000045ec60       0xcd ./tcmalloc/libtcmalloc.a(libtcmalloc_internal_la-heap-profile-table.o)
                0x000000000045ec60                _ZSt19__move_median_firstIPPN16HeapProfileTable6BucketEPFbPNS0_5StatsES5_EEvT_S8_S8_T0_
 *fill*         0x000000000045ed2d        0x3 90909090
 .text._ZNSt8_Rb_treeIPN16HeapProfileTable6BucketESt4pairIKS2_NS0_8Snapshot5EntryEESt10_Select1stIS7_ESt4lessIS2_ESaIS7_EE10_M_insert_EPKSt18_Rb_tree_node_baseSG_RKS7_
                0x000000000045ed30       0xbf ./tcmalloc/libtcmalloc.a(libtcmalloc_internal_la-heap-profile-table.o)
                0x000000000045ed30                _ZNSt8_Rb_treeIPN16HeapProfileTable6BucketESt4pairIKS2_NS0_8Snapshot5EntryEESt10_Select1stIS7_ESt4lessIS2_ESaIS7_EE10_M_insert_EPKSt18_Rb_tree_node_baseSG_RKS7_
 *fill*         0x000000000045edef        0x1 90909090
 .text._ZNSt8_Rb_treeIPN16HeapProfileTable6BucketESt4pairIKS2_NS0_8Snapshot5EntryEESt10_Select1stIS7_ESt4lessIS2_ESaIS7_EE16_M_insert_uniqueERKS7_
                0x000000000045edf0       0xaf ./tcmalloc/libtcmalloc.a(libtcmalloc_internal_la-heap-profile-table.o)
                0x000000000045edf0                _ZNSt8_Rb_treeIPN16HeapProfileTable6BucketESt4pairIKS2_NS0_8Snapshot5EntryEESt10_Select1stIS7_ESt4lessIS2_ESaIS7_EE16_M_insert_uniqueERKS7_
 *fill*         0x000000000045ee9f        0x1 90909090
 .text._ZNSt8_Rb_treeIPN16HeapProfileTable6BucketESt4pairIKS2_NS0_8Snapshot5EntryEESt10_Select1stIS7_ESt4lessIS2_ESaIS7_EE17_M_insert_unique_ESt23_Rb_tree_const_iteratorIS7_ERKS7_
                0x000000000045eea0      0x155 ./tcmalloc/libtcmalloc.a(libtcmalloc_internal_la-heap-profile-table.o)
                0x000000000045eea0                _ZNSt8_Rb_treeIPN16HeapProfileTable6BucketESt4pairIKS2_NS0_8Snapshot5EntryEESt10_Select1stIS7_ESt4lessIS2_ESaIS7_EE17_M_insert_unique_ESt23_Rb_tree_const_iteratorIS7_ERKS7_
 *fill*         0x000000000045eff5        0xb 90909090
 .text._ZSt19__move_median_firstIPN16HeapProfileTable8Snapshot5EntryEEvT_S4_S4_
                0x000000000045f000       0x8e ./tcmalloc/libtcmalloc.a(libtcmalloc_internal_la-heap-profile-table.o)
                0x000000000045f000                _ZSt19__move_median_firstIPN16HeapProfileTable8Snapshot5EntryEEvT_S4_S4_
 *fill*         0x000000000045f08e        0x2 90909090
 .text._ZSt13__adjust_heapIPPN16HeapProfileTable6BucketElS2_PFbPNS0_5StatsES5_EEvT_T0_S9_T1_T2_
                0x000000000045f090      0x146 ./tcmalloc/libtcmalloc.a(libtcmalloc_internal_la-heap-profile-table.o)
                0x000000000045f090                _ZSt13__adjust_heapIPPN16HeapProfileTable6BucketElS2_PFbPNS0_5StatsES5_EEvT_T0_S9_T1_T2_
 *fill*         0x000000000045f1d6        0xa 90909090
 .text._ZSt13__heap_selectIPPN16HeapProfileTable6BucketEPFbPNS0_5StatsES5_EEvT_S8_S8_T0_
                0x000000000045f1e0       0xc1 ./tcmalloc/libtcmalloc.a(libtcmalloc_internal_la-heap-profile-table.o)
                0x000000000045f1e0                _ZSt13__heap_selectIPPN16HeapProfileTable6BucketEPFbPNS0_5StatsES5_EEvT_S8_S8_T0_
 *fill*         0x000000000045f2a1        0xf 90909090
 .text._ZSt16__introsort_loopIPPN16HeapProfileTable6BucketElPFbPNS0_5StatsES5_EEvT_S8_T0_T1_
                0x000000000045f2b0      0x129 ./tcmalloc/libtcmalloc.a(libtcmalloc_internal_la-heap-profile-table.o)
                0x000000000045f2b0                _ZSt16__introsort_loopIPPN16HeapProfileTable6BucketElPFbPNS0_5StatsES5_EEvT_S8_T0_T1_
 *fill*         0x000000000045f3d9        0x7 90909090
 .text._ZSt13__adjust_heapIPN16HeapProfileTable8Snapshot5EntryElS2_EvT_T0_S5_T1_
                0x000000000045f3e0      0x167 ./tcmalloc/libtcmalloc.a(libtcmalloc_internal_la-heap-profile-table.o)
                0x000000000045f3e0                _ZSt13__adjust_heapIPN16HeapProfileTable8Snapshot5EntryElS2_EvT_T0_S5_T1_
 *fill*         0x000000000045f547        0x9 90909090
 .text._ZSt16__introsort_loopIPN16HeapProfileTable8Snapshot5EntryElEvT_S4_T0_
                0x000000000045f550      0x17f ./tcmalloc/libtcmalloc.a(libtcmalloc_internal_la-heap-profile-table.o)
                0x000000000045f550                _ZSt16__introsort_loopIPN16HeapProfileTable8Snapshot5EntryElEvT_S4_T0_
 *fill*         0x000000000045f6cf        0x1 90909090
 .text          0x000000000045f6d0      0xaa8 ./tcmalloc/libtcmalloc.a(libtcmalloc_internal_la-low_level_alloc.o)
                0x000000000045ff40                _ZN13LowLevelAlloc11DeleteArenaEPNS_5ArenaE
                0x00000000004600d0                _ZN13LowLevelAlloc8NewArenaEiPNS_5ArenaE
                0x0000000000460170                _ZN13LowLevelAlloc12DefaultArenaEv
 *fill*         0x0000000000460178        0x8 90909090
 .text          0x0000000000460180     0x208f ./tcmalloc/libtcmalloc.a(libtcmalloc_internal_la-memory_region_map.o)
                0x0000000000460180                _ZN15MemoryRegionMap4LockEv
                0x0000000000460370                _ZN15MemoryRegionMap6UnlockEv
                0x00000000004604d0                _ZN15MemoryRegionMap10LockIsHeldEv
                0x0000000000460580                _ZN15MemoryRegionMap18DoFindRegionLockedEm
                0x0000000000460640                _ZN15MemoryRegionMap10FindRegionEmPNS_6RegionE
                0x00000000004606a0                _ZN15MemoryRegionMap22FindAndMarkStackRegionEmPNS_6RegionE
                0x0000000000460720                _ZN15MemoryRegionMap17BeginRegionLockedEv
                0x0000000000460790                _ZN15MemoryRegionMap15EndRegionLockedEv
                0x0000000000460800                _ZN15MemoryRegionMap4InitEi
                0x00000000004609c0                _ZN15MemoryRegionMap12LogAllLockedEv
                0x0000000000460ad0                _ZN15MemoryRegionMap8ShutdownEv
                0x0000000000460cb0                _ZN15MemoryRegionMap19RecordRegionRemovalEPKvm
                0x0000000000461ac0                _ZN15MemoryRegionMap10MunmapHookEPKvm
                0x0000000000461b30                _ZN15MemoryRegionMap20RecordRegionAdditionEPKvm
                0x0000000000462040                _ZN15MemoryRegionMap8SbrkHookEPKvl
                0x00000000004620e0                _ZN15MemoryRegionMap10MremapHookEPKvS1_mmiS1_
                0x0000000000462190                _ZN15MemoryRegionMap8MmapHookEPKvS1_miiil
 *fill*         0x000000000046220f        0x1 90909090
 .text._ZN15MemoryRegionMap24HandleSavedRegionsLockedEPFvRKNS_6RegionEE
                0x0000000000462210       0x72 ./tcmalloc/libtcmalloc.a(libtcmalloc_internal_la-memory_region_map.o)
                0x0000000000462210                _ZN15MemoryRegionMap24HandleSavedRegionsLockedEPFvRKNS_6RegionEE
 *fill*         0x0000000000462282        0xe 90909090
 .text._ZNSt8_Rb_treeIN15MemoryRegionMap6RegionES1_St9_IdentityIS1_ENS0_9RegionCmpE13STL_AllocatorIS1_NS0_11MyAllocatorEEE8_M_eraseEPSt13_Rb_tree_nodeIS1_E
                0x0000000000462290       0x3d ./tcmalloc/libtcmalloc.a(libtcmalloc_internal_la-memory_region_map.o)
                0x0000000000462290                _ZNSt8_Rb_treeIN15MemoryRegionMap6RegionES1_St9_IdentityIS1_ENS0_9RegionCmpE13STL_AllocatorIS1_NS0_11MyAllocatorEEE8_M_eraseEPSt13_Rb_tree_nodeIS1_E
 *fill*         0x00000000004622cd        0x3 90909090
 .text._ZNSt8_Rb_treeIN15MemoryRegionMap6RegionES1_St9_IdentityIS1_ENS0_9RegionCmpE13STL_AllocatorIS1_NS0_11MyAllocatorEEE10_M_insert_EPKSt18_Rb_tree_node_baseSB_RKS1_
                0x00000000004622d0       0xb5 ./tcmalloc/libtcmalloc.a(libtcmalloc_internal_la-memory_region_map.o)
                0x00000000004622d0                _ZNSt8_Rb_treeIN15MemoryRegionMap6RegionES1_St9_IdentityIS1_ENS0_9RegionCmpE13STL_AllocatorIS1_NS0_11MyAllocatorEEE10_M_insert_EPKSt18_Rb_tree_node_baseSB_RKS1_
 *fill*         0x0000000000462385        0xb 90909090
 .text._ZNSt8_Rb_treeIN15MemoryRegionMap6RegionES1_St9_IdentityIS1_ENS0_9RegionCmpE13STL_AllocatorIS1_NS0_11MyAllocatorEEE16_M_insert_uniqueERKS1_
                0x0000000000462390       0xb0 ./tcmalloc/libtcmalloc.a(libtcmalloc_internal_la-memory_region_map.o)
                0x0000000000462390                _ZNSt8_Rb_treeIN15MemoryRegionMap6RegionES1_St9_IdentityIS1_ENS0_9RegionCmpE13STL_AllocatorIS1_NS0_11MyAllocatorEEE16_M_insert_uniqueERKS1_
 .text._ZN15MemoryRegionMap20DoInsertRegionLockedERKNS_6RegionE
                0x0000000000462440       0xcf ./tcmalloc/libtcmalloc.a(libtcmalloc_internal_la-memory_region_map.o)
                0x0000000000462440                _ZN15MemoryRegionMap20DoInsertRegionLockedERKNS_6RegionE
 *fill*         0x000000000046250f        0x1 90909090
 .text._ZN15MemoryRegionMap18InsertRegionLockedERKNS_6RegionE
                0x0000000000462510      0x21a ./tcmalloc/libtcmalloc.a(libtcmalloc_internal_la-memory_region_map.o)
                0x0000000000462510                _ZN15MemoryRegionMap18InsertRegionLockedERKNS_6RegionE
 *fill*         0x000000000046272a        0x6 90909090
 .text          0x0000000000462730      0x112 ./tcmalloc/libtcmalloc.a(libtcmalloc_internal_la-raw_printer.o)
                0x0000000000462730                _ZN4base10RawPrinterC2EPci
                0x0000000000462730                _ZN4base10RawPrinterC1EPci
                0x0000000000462750                _ZN4base10RawPrinter6PrintfEPKcz
 *fill*         0x0000000000462842        0xe 90909090
 .text          0x0000000000462850      0x537 ./tcmalloc/libtcmalloc.a(libtcmalloc_internal_la-symbolize.o)
                0x0000000000462870                _ZN11SymbolTable9SymbolizeEv
                0x0000000000462cb0                _ZN11SymbolTable3AddEPKv
                0x0000000000462d20                _ZN11SymbolTable9GetSymbolEPKv
 *fill*         0x0000000000462d87        0x9 90909090
 .text._ZNSt8_Rb_treeIPKvSt4pairIKS1_PKcESt10_Select1stIS6_ESt4lessIS1_ESaIS6_EE10_M_insert_EPKSt18_Rb_tree_node_baseSF_RKS6_
                0x0000000000462d90       0xb4 ./tcmalloc/libtcmalloc.a(libtcmalloc_internal_la-symbolize.o)
                0x0000000000462d90                _ZNSt8_Rb_treeIPKvSt4pairIKS1_PKcESt10_Select1stIS6_ESt4lessIS1_ESaIS6_EE10_M_insert_EPKSt18_Rb_tree_node_baseSF_RKS6_
 *fill*         0x0000000000462e44        0xc 90909090
 .text._ZNSt8_Rb_treeIPKvSt4pairIKS1_PKcESt10_Select1stIS6_ESt4lessIS1_ESaIS6_EE16_M_insert_uniqueERKS6_
                0x0000000000462e50       0xaf ./tcmalloc/libtcmalloc.a(libtcmalloc_internal_la-symbolize.o)
                0x0000000000462e50                _ZNSt8_Rb_treeIPKvSt4pairIKS1_PKcESt10_Select1stIS6_ESt4lessIS1_ESaIS6_EE16_M_insert_uniqueERKS6_
 *fill*         0x0000000000462eff        0x1 90909090
 .text._ZNSt8_Rb_treeIPKvSt4pairIKS1_PKcESt10_Select1stIS6_ESt4lessIS1_ESaIS6_EE17_M_insert_unique_ESt23_Rb_tree_const_iteratorIS6_ERKS6_
                0x0000000000462f00      0x155 ./tcmalloc/libtcmalloc.a(libtcmalloc_internal_la-symbolize.o)
                0x0000000000462f00                _ZNSt8_Rb_treeIPKvSt4pairIKS1_PKcESt10_Select1stIS6_ESt4lessIS1_ESaIS6_EE17_M_insert_unique_ESt23_Rb_tree_const_iteratorIS6_ERKS6_
 *fill*         0x0000000000463055        0xb 90909090
 .text          0x0000000000463060     0x16a8 ./tcmalloc/libtcmalloc.a(libtcmalloc_la-linuxthreads.o)
                0x00000000004631e0                ListAllProcessThreads
                0x0000000000463590                ResumeAllProcessThreads
 *fill*         0x0000000000464708        0x8 90909090
 .text          0x0000000000464710       0x8f ./unwind/libunwind.a(backtrace.o)
                0x0000000000464710                backtrace
 *fill*         0x000000000046479f        0x1 90909090
 .text          0x00000000004647a0       0x1a ./unwind/libunwind.a(Lget_reg.o)
                0x00000000004647a0                _ULx86_64_get_reg
 *fill*         0x00000000004647ba        0x6 90909090
 .text          0x00000000004647c0      0x2a5 ./unwind/libunwind.a(Linit_local.o)
                0x00000000004647c0                _ULx86_64_init_local
 *fill*         0x0000000000464a65        0xb 90909090
 .text          0x0000000000464a70      0x1e6 ./unwind/libunwind.a(Lregs.o)
                0x0000000000464a70                _ULx86_64_access_reg
                0x0000000000464c50                _ULx86_64_access_fpreg
 *fill*         0x0000000000464c56        0xa 90909090
 .text          0x0000000000464c60      0x2a5 ./unwind/libunwind.a(lt1-Lstep.o)
                0x0000000000464c60                _ULx86_64_step
 *fill*         0x0000000000464f05        0x3 90909090
 .text          0x0000000000464f08       0x71 ./unwind/libunwind.a(getcontext.o)
                0x0000000000464f08                _Ux86_64_getcontext
 *fill*         0x0000000000464f79        0x7 90909090
 .text          0x0000000000464f80       0x20 ./unwind/libunwind.a(Lstep.o)
                0x0000000000464f80                _ULx86_64_dwarf_step
 .text          0x0000000000464fa0       0x8b ./unwind/libunwind.a(Lglobal.o)
                0x0000000000464fa0                _ULx86_64_init
 *fill*         0x000000000046502b        0x5 90909090
 .text          0x0000000000465030      0x5a1 ./unwind/libunwind.a(Linit.o)
                0x0000000000465170                _ULx86_64_local_addr_space_init
                0x00000000004654c0                _Ux86_64_uc_addr
 *fill*         0x00000000004655d1        0xf 90909090
 .text          0x00000000004655e0       0xa2 ./unwind/libunwind.a(Lis_signal_frame.o)
                0x00000000004655e0                _ULx86_64_is_signal_frame
 *fill*         0x0000000000465682        0xe 90909090
 .text          0x0000000000465690      0x130 ./unwind/libunwind.a(Lresume.o)
                0x0000000000465690                _ULx86_64_resume
                0x0000000000465760                _ULx86_64_local_resume
 .text          0x00000000004657c0        0x2 ./unwind/libunwind.a(init.o)
                0x00000000004657c0                _UIx86_64_mi_init
 *fill*         0x00000000004657c2        0xe 90909090
 .text          0x00000000004657d0       0x5d ./unwind/libunwind.a(flush_cache.o)
                0x00000000004657d0                _Ux86_64_flush_cache
 *fill*         0x000000000046582d        0x3 90909090
 .text          0x0000000000465830       0x2d ./unwind/libunwind.a(global.o)
                0x0000000000465830                _Ux86_64_dwarf_init
 *fill*         0x000000000046585d        0x3 90909090
 .text          0x0000000000465860      0x31a ./unwind/libunwind.a(elf64.o)
                0x0000000000465860                _Uelf64_valid_object
                0x00000000004658a0                _Uelf64_get_proc_name
 *fill*         0x0000000000465b7a        0x6 90909090
 .text          0x0000000000465b80        0x3 ./unwind/libunwind.a(is_fpreg.o)
                0x0000000000465b80                _Ux86_64_is_fpreg
 *fill*         0x0000000000465b83        0xd 90909090
 .text          0x0000000000465b90       0x18 ./unwind/libunwind.a(Lget_accessors.o)
                0x0000000000465b90                _Ux86_64_get_accessors
 *fill*         0x0000000000465ba8        0x8 90909090
 .text          0x0000000000465bb0     0x130a ./unwind/libunwind.a(Lparser.o)
                0x0000000000465c70                _ULx86_64_dwarf_make_proc_info
                0x00000000004666c0                _ULx86_64_dwarf_create_state_record
                0x00000000004669a0                _ULx86_64_dwarf_find_save_locs
 *fill*         0x0000000000466eba        0x6 90909090
 .text          0x0000000000466ec0      0x16f ./unwind/libunwind.a(Lpe.o)
                0x0000000000466ec0                _ULx86_64_dwarf_read_encoded_pointer
 *fill*         0x000000000046702f        0x1 90909090
 .text          0x0000000000467030     0x1321 ./unwind/libunwind.a(Lfind_proc_info-lsb.o)
                0x0000000000467050                _ULx86_64_dwarf_put_unwind_info
                0x0000000000467060                _ULx86_64_dwarf_search_unwind_table
                0x0000000000467200                _ULx86_64_dwarf_find_proc_info
 *fill*         0x0000000000468351        0x3 90909090
 .text          0x0000000000468354       0x66 ./unwind/libunwind.a(setcontext.o)
                0x0000000000468354                _Ux86_64_setcontext
 *fill*         0x00000000004683ba        0x6 90909090
 .text          0x00000000004683c0      0x992 ./unwind/libunwind.a(os-linux.o)
                0x00000000004683c0                _Ux86_64_get_elf_image
 *fill*         0x0000000000468d52        0xe 90909090
 .text          0x0000000000468d60      0x36b ./unwind/libunwind.a(mempool.o)
                0x0000000000468d60                _UIx86_64__mempool_free
                0x0000000000468e00                _UIx86_64__sos_alloc
                0x0000000000468f50                _UIx86_64__mempool_alloc
                0x0000000000469000                _UIx86_64__mempool_init
 *fill*         0x00000000004690cb        0x5 90909090
 .text          0x00000000004690d0       0x8a ./unwind/libunwind.a(Lfind_dynamic_proc_info.o)
                0x00000000004690d0                _ULx86_64_Ifind_dynamic_proc_info
 *fill*         0x000000000046915a        0x6 90909090
 .text          0x0000000000469160       0x12 ./unwind/libunwind.a(Lput_dynamic_unwind_info.o)
                0x0000000000469160                _ULx86_64_Iput_dynamic_unwind_info
 *fill*         0x0000000000469172        0xe 90909090
 .text          0x0000000000469180      0xbfc ./unwind/libunwind.a(Lexpr.o)
                0x0000000000469180                _ULx86_64_dwarf_eval_expr
 *fill*         0x0000000000469d7c        0x4 90909090
 .text          0x0000000000469d80      0x6ce ./unwind/libunwind.a(Lfde.o)
                0x0000000000469d80                _ULx86_64_dwarf_extract_proc_info_from_fde
 *fill*         0x000000000046a44e        0x2 90909090
 .text          0x000000000046a450        0x6 ./unwind/libunwind.a(dyn-info-list.o)
                0x000000000046a450                _U_dyn_info_list_addr
 *fill*         0x000000000046a456        0xa 90909090
 .text          0x000000000046a460       0x8b ./unwind/libunwind.a(Ldyn-extract.o)
                0x000000000046a460                _ULx86_64_Iextract_dynamic_proc_info
 *fill*         0x000000000046a4eb        0x5 90909090
 .text          0x000000000046a4f0       0x1c /usr/lib/x86_64-linux-gnu/libpthread_nonshared.a(pthread_atfork.oS)
                0x000000000046a4f0                pthread_atfork
                0x000000000046a4f0                __pthread_atfork
 *fill*         0x000000000046a50c        0x4 90909090
 .text          0x000000000046a510       0x92 /usr/lib/x86_64-linux-gnu/libc_nonshared.a(elf-init.oS)
                0x000000000046a510                __libc_csu_init
                0x000000000046a5a0                __libc_csu_fini
 *fill*         0x000000000046a5a2        0xe 90909090
 .text          0x000000000046a5b0       0x36 /usr/lib/gcc/x86_64-linux-gnu/4.6.1/crtend.o
 *fill*         0x000000000046a5e6        0x2 90909090
 .text          0x000000000046a5e8        0x0 /usr/lib/gcc/x86_64-linux-gnu/4.6.1/../../../x86_64-linux-gnu/crtn.o
 *(.gnu.warning)

google_malloc   0x000000000046a5f0     0x404d
                0x000000000046a5f0                . = ALIGN (0x10)
                0x000000000046a5f0                PROVIDE (__start_google_malloc, ABSOLUTE (.))
 google_malloc  0x000000000046a5f0     0x404d ./tcmalloc/libtcmalloc.a(libtcmalloc_la-tcmalloc.o)
                0x000000000046a5f0                __libc_malloc
                0x000000000046a5f0                tc_malloc
                0x000000000046a5f0                malloc
                0x000000000046ab70                free
                0x000000000046ab70                tc_free
                0x000000000046ab70                __libc_free
                0x000000000046ad90                __libc_calloc
                0x000000000046ad90                tc_calloc
                0x000000000046ad90                calloc
                0x000000000046b340                tc_cfree
                0x000000000046b340                __libc_cfree
                0x000000000046b340                cfree
                0x000000000046b560                tc_realloc
                0x000000000046b560                __libc_realloc
                0x000000000046b560                realloc
                0x000000000046cc10                _Znwm
                0x000000000046cc10                tc_new
                0x000000000046cfc0                _ZnwmRKSt9nothrow_t
                0x000000000046cfc0                tc_new_nothrow
                0x000000000046d2f0                _ZdlPv
                0x000000000046d2f0                tc_delete
                0x000000000046d510                tc_delete_nothrow
                0x000000000046d510                _ZdlPvRKSt9nothrow_t
                0x000000000046d730                tc_newarray
                0x000000000046d730                _Znam
                0x000000000046dae0                _ZnamRKSt9nothrow_t
                0x000000000046dae0                tc_newarray_nothrow
                0x000000000046de10                _ZdaPv
                0x000000000046de10                tc_deletearray
                0x000000000046e030                _ZdaPvRKSt9nothrow_t
                0x000000000046e030                tc_deletearray_nothrow
                0x000000000046e250                memalign
                0x000000000046e250                tc_memalign
                0x000000000046e250                __libc_memalign
                0x000000000046e2e0                tc_posix_memalign
                0x000000000046e2e0                posix_memalign
                0x000000000046e2e0                __posix_memalign
                0x000000000046e3c0                __libc_valloc
                0x000000000046e3c0                tc_valloc
                0x000000000046e3c0                valloc
                0x000000000046e460                tc_pvalloc
                0x000000000046e460                __libc_pvalloc
                0x000000000046e460                pvalloc
                0x000000000046e520                tc_malloc_stats
                0x000000000046e520                malloc_stats
                0x000000000046e550                mallopt
                0x000000000046e550                tc_mallopt
                0x000000000046e560                mallinfo
                0x000000000046e560                tc_mallinfo
                0x000000000046e610                malloc_size
                0x000000000046e610                tc_malloc_size
                0x000000000046e610                malloc_usable_size
                0x000000000046e63d                PROVIDE (__stop_google_malloc, .)

malloc_hook     0x000000000046e640      0x829
                0x000000000046e640                . = ALIGN (0x10)
                0x000000000046e640                PROVIDE (__start_malloc_hook, ABSOLUTE (.))
 malloc_hook    0x000000000046e640      0x5ca ./tcmalloc/libtcmalloc.a(libtcmalloc_internal_la-malloc_hook.o)
                0x000000000046e640                mmap64
                0x000000000046e7f0                mmap
                0x000000000046e9a0                mremap
                0x000000000046ea80                sbrk
                0x000000000046eb60                munmap
 *fill*         0x000000000046ec0a        0x6 00
 malloc_hook    0x000000000046ec10      0x259 ./tcmalloc/libtcmalloc.a(libtcmalloc_internal_la-low_level_alloc.o)
                0x000000000046ec10                _ZN13LowLevelAlloc4FreeEPv
                0x000000000046ed30                _ZN13LowLevelAlloc5AllocEm
                0x000000000046edb0                _ZN13LowLevelAlloc14AllocWithArenaEmPNS_5ArenaE
                0x000000000046ee69                PROVIDE (__stop_malloc_hook, .)

.fini           0x000000000046ee6c        0xe
 *(.fini)
 .fini          0x000000000046ee6c        0x4 /usr/lib/gcc/x86_64-linux-gnu/4.6.1/../../../x86_64-linux-gnu/crti.o
                0x000000000046ee6c                _fini
 .fini          0x000000000046ee70        0x5 /usr/lib/gcc/x86_64-linux-gnu/4.6.1/crtbegin.o
 .fini          0x000000000046ee75        0x5 /usr/lib/gcc/x86_64-linux-gnu/4.6.1/../../../x86_64-linux-gnu/crtn.o
                0x000000000046ee7a                PROVIDE (__etext, .)
                0x000000000046ee7a                PROVIDE (_etext, .)
                0x000000000046ee7a                PROVIDE (etext, .)

.rodata         0x000000000046ee80     0xf240
 *(.rodata .rodata.* .gnu.linkonce.r.*)
 .rodata.cst4   0x000000000046ee80        0x4 /usr/lib/gcc/x86_64-linux-gnu/4.6.1/../../../x86_64-linux-gnu/crt1.o
                0x000000000046ee80                _IO_stdin_used
 *fill*         0x000000000046ee84        0x4 00
 .rodata.str1.8
                0x000000000046ee88       0x6d mpidriver.o
 .rodata._ZTS10mpi_driver
                0x000000000046eef5        0xd mpidriver.o
                0x000000000046eef5                _ZTS10mpi_driver
 *fill*         0x000000000046ef02        0xe 00
 .rodata._ZTI10mpi_driver
                0x000000000046ef10       0x10 mpidriver.o
                0x000000000046ef10                _ZTI10mpi_driver
 .rodata._ZTV10mpi_driver
                0x000000000046ef20       0x70 mpidriver.o
                0x000000000046ef20                _ZTV10mpi_driver
 .rodata        0x000000000046ef90        0x8 mpidriver.o
                0x000000000046ef90                _ZN10mpi_driver12eof_datatypeE
                0x000000000046ef94                _ZN10mpi_driver11eof_messageE
 .rodata.str1.1
                0x000000000046ef98       0x1c trace.o
                                         0x20 (size before relaxing)
 .rodata.str1.1
                0x000000000046efb4      0x12b novoalignCSMPI.a(novoalignMPI_main.o)
                                        0x13b (size before relaxing)
 *fill*         0x000000000046f0df        0x1 00
 .rodata.str1.8
                0x000000000046f0e0       0x9e novoalignCSMPI.a(novoalignMPI_main.o)
 *fill*         0x000000000046f17e        0x2 00
 .rodata._ZTV8mpistats
                0x000000000046f180       0x18 novoalignCSMPI.a(novoalignMPI_main.o)
                0x000000000046f180                _ZTV8mpistats
 *fill*         0x000000000046f198        0x8 00
 .rodata._ZTV11fragdistMPI
                0x000000000046f1a0       0x18 novoalignCSMPI.a(novoalignMPI_main.o)
                0x000000000046f1a0                _ZTV11fragdistMPI
 *fill*         0x000000000046f1b8        0x8 00
 .rodata._ZTI8mpistats
                0x000000000046f1c0       0x18 novoalignCSMPI.a(novoalignMPI_main.o)
                0x000000000046f1c0                _ZTI8mpistats
 *fill*         0x000000000046f1d8        0x8 00
 .rodata._ZTI11fragdistMPI
                0x000000000046f1e0       0x18 novoalignCSMPI.a(novoalignMPI_main.o)
                0x000000000046f1e0                _ZTI11fragdistMPI
 .rodata._ZTS8mpistats
                0x000000000046f1f8        0xa novoalignCSMPI.a(novoalignMPI_main.o)
                0x000000000046f1f8                _ZTS8mpistats
 *fill*         0x000000000046f202        0xe 00
 .rodata._ZTI10alignstats
                0x000000000046f210       0x10 novoalignCSMPI.a(novoalignMPI_main.o)
                0x000000000046f210                _ZTI10alignstats
 .rodata._ZTS11fragdistMPI
                0x000000000046f220        0xe novoalignCSMPI.a(novoalignMPI_main.o)
                0x000000000046f220                _ZTS11fragdistMPI
 .rodata._ZTS10alignstats
                0x000000000046f22e        0xd novoalignCSMPI.a(novoalignMPI_main.o)
                0x000000000046f22e                _ZTS10alignstats
 *fill*         0x000000000046f23b        0x5 00
 .rodata.cst8   0x000000000046f240       0x10 novoalignCSMPI.a(novoalignMPI_main.o)
 .rodata.str1.1
                0x000000000046f250       0x4c novoalignCSMPI.a(fragdist.o)
 .rodata._ZTS8fragdist
                0x000000000046f29c        0xa novoalignCSMPI.a(fragdist.o)
                0x000000000046f29c                _ZTS8fragdist
 *fill*         0x000000000046f2a6        0xa 00
 .rodata._ZTI8fragdist
                0x000000000046f2b0       0x10 novoalignCSMPI.a(fragdist.o)
                0x000000000046f2b0                _ZTI8fragdist
 .rodata._ZTV8fragdist
                0x000000000046f2c0       0x18 novoalignCSMPI.a(fragdist.o)
                0x000000000046f2c0                _ZTV8fragdist
 .rodata.cst8   0x000000000046f2d8       0x38 novoalignCSMPI.a(fragdist.o)
 .rodata.cst4   0x000000000046f310        0x8 novoalignCSMPI.a(fragdist.o)
 *fill*         0x000000000046f318        0x8 00
 .rodata.cst16  0x000000000046f320       0x10 novoalignCSMPI.a(fragdist.o)
 .rodata.str1.1
                0x000000000046f330       0xae novoalignCSMPI.a(indelstats.o)
 *fill*         0x000000000046f3de        0x2 00
 .rodata.str1.8
                0x000000000046f3e0       0x7d novoalignCSMPI.a(indelstats.o)
 *fill*         0x000000000046f45d        0x3 00
 .rodata        0x000000000046f460       0x29 novoalignCSMPI.a(indelstats.o)
 *fill*         0x000000000046f489        0x7 00
 .rodata.str1.8
                0x000000000046f490       0xa7 novoalignCSMPI.a(ksgroups.o)
 .rodata.str1.1
                0x000000000046f537       0x83 novoalignCSMPI.a(ksindex.o)
 *fill*         0x000000000046f5ba        0x6 00
 .rodata.str1.8
                0x000000000046f5c0      0x275 novoalignCSMPI.a(ksindex.o)
 *fill*         0x000000000046f835        0xb 00
 .rodata        0x000000000046f840       0xc8 novoalignCSMPI.a(ksindex.o)
 *fill*         0x000000000046f908        0x8 00
 .rodata.cst16  0x000000000046f910       0x20 novoalignCSMPI.a(ksindex.o)
 .rodata.cst8   0x000000000046f930       0x28 novoalignCSMPI.a(ksindex.o)
                                         0x30 (size before relaxing)
 .rodata.cst4   0x000000000046f958        0x8 novoalignCSMPI.a(ksindex.o)
 .rodata        0x000000000046f960      0x16f novoalignCSMPI.a(novoalignmpi.o)
 *fill*         0x000000000046facf        0x1 00
 .rodata.str1.8
                0x000000000046fad0      0x307 novoalignCSMPI.a(novoalignmpi.o)
 .rodata.str1.1
                0x000000000046fdd7      0x223 novoalignCSMPI.a(novoalignmpi.o)
                                        0x244 (size before relaxing)
 .rodata._ZTS12novoalignmpi
                0x000000000046fffa        0xf novoalignCSMPI.a(novoalignmpi.o)
                0x000000000046fffa                _ZTS12novoalignmpi
 *fill*         0x0000000000470009        0x7 00
 .rodata._ZTI12novoalignmpi
                0x0000000000470010       0x18 novoalignCSMPI.a(novoalignmpi.o)
                0x0000000000470010                _ZTI12novoalignmpi
 *fill*         0x0000000000470028        0x8 00
 .rodata._ZTS15novoalign_slave
                0x0000000000470030       0x12 novoalignCSMPI.a(novoalignmpi.o)
                0x0000000000470030                _ZTS15novoalign_slave
 *fill*         0x0000000000470042        0xe 00
 .rodata._ZTI15novoalign_slave
                0x0000000000470050       0x18 novoalignCSMPI.a(novoalignmpi.o)
                0x0000000000470050                _ZTI15novoalign_slave
 *fill*         0x0000000000470068       0x18 00
 .rodata._ZTV12novoalignmpi
                0x0000000000470080       0x70 novoalignCSMPI.a(novoalignmpi.o)
                0x0000000000470080                _ZTV12novoalignmpi
 *fill*         0x00000000004700f0       0x10 00
 .rodata._ZTV15novoalign_slave
                0x0000000000470100       0x28 novoalignCSMPI.a(novoalignmpi.o)
                0x0000000000470100                _ZTV15novoalign_slave
 *fill*         0x0000000000470128       0x18 00
 .rodata._ZTV8rptBlast
                0x0000000000470140       0x70 novoalignCSMPI.a(novoalignmpi.o)
                0x0000000000470140                _ZTV8rptBlast
 *fill*         0x00000000004701b0       0x10 00
 .rodata._ZTI8rptBlast
                0x00000000004701c0       0x28 novoalignCSMPI.a(novoalignmpi.o)
                0x00000000004701c0                _ZTI8rptBlast
 .rodata._ZTS8rptBlast
                0x00000000004701e8        0xa novoalignCSMPI.a(novoalignmpi.o)
                0x00000000004701e8                _ZTS8rptBlast
 *fill*         0x00000000004701f2        0x6 00
 .rodata.cst8   0x00000000004701f8       0x18 novoalignCSMPI.a(novoalignmpi.o)
                                         0x28 (size before relaxing)
 .rodata.cst16  0x0000000000470210       0x20 novoalignCSMPI.a(novoalignmpi.o)
 .rodata.str1.1
                0x0000000000470230      0x25c novoalignCSMPI.a(novoparam.o)
                                        0x2bb (size before relaxing)
 *fill*         0x000000000047048c        0x4 00
 .rodata.str1.8
                0x0000000000470490     0x3afd novoalignCSMPI.a(novoparam.o)
 *fill*         0x0000000000473f8d       0x13 00
 .rodata        0x0000000000473fa0      0x6c9 novoalignCSMPI.a(novoparam.o)
 *fill*         0x0000000000474669       0x17 00
 .rodata._ZZN7license10setdefaultEvE15default_license
                0x0000000000474680       0x43 novoalignCSMPI.a(novoparam.o)
                0x0000000000474680                _ZZN7license10setdefaultEvE15default_license
 *fill*         0x00000000004746c3        0x5 00
 .rodata.cst8   0x00000000004746c8       0x10 novoalignCSMPI.a(novoparam.o)
                                         0x18 (size before relaxing)
 .rodata.cst4   0x0000000000000000        0x8 novoalignCSMPI.a(novoparam.o)
 *fill*         0x00000000004746d8        0x8 00
 .rodata.cst16  0x00000000004746e0       0x10 novoalignCSMPI.a(novoparam.o)
 .rodata.cst8   0x0000000000000000        0x8 novoalignCSMPI.a(posteriorP.o)
 .rodata.str1.1
                0x00000000004746f0       0x3e novoalignCSMPI.a(prbcalibrateCS.o)
                                         0x52 (size before relaxing)
 *fill*         0x000000000047472e        0x2 00
 .rodata.str1.8
                0x0000000000474730       0xfd novoalignCSMPI.a(prbcalibrateCS.o)
 *fill*         0x000000000047482d       0x13 00
 .rodata        0x0000000000474840      0x1f1 novoalignCSMPI.a(prbcalibrateCS.o)
 .rodata.cst8   0x0000000000000000       0x18 novoalignCSMPI.a(prbcalibrateCS.o)
 *fill*         0x0000000000474a31        0x7 00
 .rodata.cst8   0x0000000000474a38       0x18 novoalignCSMPI.a(qualconvert.o)
                                         0x38 (size before relaxing)
 .rodata.cst4   0x0000000000474a50        0xc novoalignCSMPI.a(qualconvert.o)
                                         0x14 (size before relaxing)
 .rodata.str1.1
                0x0000000000474a5c       0x1e novoalignCSMPI.a(queryfolder.o)
                                         0x1f (size before relaxing)
 *fill*         0x0000000000474a7a        0x6 00
 .rodata.str1.8
                0x0000000000474a80       0x94 novoalignCSMPI.a(queryfolder.o)
 .rodata.str1.1
                0x0000000000474b14       0x47 novoalignCSMPI.a(queryformatCS.o)
                                         0x62 (size before relaxing)
 *fill*         0x0000000000474b5b        0x5 00
 .rodata.str1.8
                0x0000000000474b60       0xd9 novoalignCSMPI.a(queryformatCS.o)
 *fill*         0x0000000000474c39        0x7 00
 .rodata.str1.8
                0x0000000000474c40       0xe0 novoalignCSMPI.a(queryreader.o)
                                        0x108 (size before relaxing)
 .rodata.str1.1
                0x0000000000000000        0x1 novoalignCSMPI.a(queryreader.o)
 .rodata.str1.8
                0x0000000000474d20       0x90 novoalignCSMPI.a(reporter.o)
                                        0x183 (size before relaxing)
 .rodata.str1.1
                0x0000000000474db0       0x2b novoalignCSMPI.a(reporter.o)
                                         0xc1 (size before relaxing)
 .rodata._ZTS8reporter
                0x0000000000474ddb        0xa novoalignCSMPI.a(reporter.o)
                0x0000000000474ddb                _ZTS8reporter
 *fill*         0x0000000000474de5        0xb 00
 .rodata._ZTI8reporter
                0x0000000000474df0       0x10 novoalignCSMPI.a(reporter.o)
                0x0000000000474df0                _ZTI8reporter
 .rodata._ZTV8reporter
                0x0000000000474e00       0x70 novoalignCSMPI.a(reporter.o)
                0x0000000000474e00                _ZTV8reporter
 .rodata        0x0000000000474e70       0x1c novoalignCSMPI.a(reporter.o)
 *fill*         0x0000000000474e8c        0x4 00
 .rodata.cst8   0x0000000000474e90       0x20 novoalignCSMPI.a(reporter.o)
                                         0x38 (size before relaxing)
 .rodata.str1.8
                0x0000000000474eb0       0xa4 novoalignCSMPI.a(rptNative.o)
                                        0x19c (size before relaxing)
 .rodata.str1.1
                0x0000000000474f54       0xc2 novoalignCSMPI.a(rptNative.o)
                                        0x192 (size before relaxing)
 .rodata._ZTS9rptNative
                0x0000000000475016        0xb novoalignCSMPI.a(rptNative.o)
                0x0000000000475016                _ZTS9rptNative
 *fill*         0x0000000000475021       0x1f 00
 .rodata._ZTI9rptNative
                0x0000000000475040       0x28 novoalignCSMPI.a(rptNative.o)
                0x0000000000475040                _ZTI9rptNative
 *fill*         0x0000000000475068       0x18 00
 .rodata._ZTV9rptNative
                0x0000000000475080       0x70 novoalignCSMPI.a(rptNative.o)
                0x0000000000475080                _ZTV9rptNative
 *fill*         0x00000000004750f0       0x10 00
 .rodata        0x0000000000475100       0x6e novoalignCSMPI.a(rptNative.o)
 *fill*         0x000000000047516e        0x2 00
 .rodata.str1.8
                0x0000000000475170       0x20 novoalignCSMPI.a(rptSAM.o)
                                        0x118 (size before relaxing)
 .rodata.str1.1
                0x0000000000475190      0x210 novoalignCSMPI.a(rptSAM.o)
                                        0x32e (size before relaxing)
 .rodata._ZTS6rptSAM
                0x00000000004753a0        0x8 novoalignCSMPI.a(rptSAM.o)
                0x00000000004753a0                _ZTS6rptSAM
 *fill*         0x00000000004753a8       0x18 00
 .rodata._ZTI6rptSAM
                0x00000000004753c0       0x28 novoalignCSMPI.a(rptSAM.o)
                0x00000000004753c0                _ZTI6rptSAM
 *fill*         0x00000000004753e8       0x18 00
 .rodata._ZTV6rptSAM
                0x0000000000475400       0x70 novoalignCSMPI.a(rptSAM.o)
                0x0000000000475400                _ZTV6rptSAM
 *fill*         0x0000000000475470       0x10 00
 .rodata        0x0000000000475480      0x158 novoalignCSMPI.a(rptSAM.o)
 .rodata.cst8   0x0000000000000000       0x30 novoalignCSMPI.a(rptSAM.o)
 .rodata.str1.8
                0x00000000004755d8      0x186 novoalignCSMPI.a(TThread.o)
 .rodata._ZTS7TThread
                0x000000000047575e        0x9 novoalignCSMPI.a(TThread.o)
                0x000000000047575e                _ZTS7TThread
 *fill*         0x0000000000475767        0x9 00
 .rodata._ZTI7TThread
                0x0000000000475770       0x10 novoalignCSMPI.a(TThread.o)
                0x0000000000475770                _ZTI7TThread
 .rodata._ZTV7TThread
                0x0000000000475780       0x28 novoalignCSMPI.a(TThread.o)
                0x0000000000475780                _ZTV7TThread
 .rodata.cst8   0x00000000004757a8        0x8 novoalignCSMPI.a(TThread.o)
 .rodata.str1.8
                0x00000000004757b0       0xdb novoalignCSMPI.a(TThreadPool.o)
 .rodata.str1.1
                0x0000000000000000       0x1c novoalignCSMPI.a(TThreadPool.o)
 *fill*         0x000000000047588b        0x5 00
 .rodata._ZTSN11TThreadPool4TJobE
                0x0000000000475890       0x15 novoalignCSMPI.a(TThreadPool.o)
                0x0000000000475890                _ZTSN11TThreadPool4TJobE
 *fill*         0x00000000004758a5        0xb 00
 .rodata._ZTIN11TThreadPool4TJobE
                0x00000000004758b0       0x10 novoalignCSMPI.a(TThreadPool.o)
                0x00000000004758b0                _ZTIN11TThreadPool4TJobE
 .rodata._ZTVN11TThreadPool4TJobE
                0x00000000004758c0       0x28 novoalignCSMPI.a(TThreadPool.o)
                0x00000000004758c0                _ZTVN11TThreadPool4TJobE
 *fill*         0x00000000004758e8       0x18 00
 .rodata._ZTV8TPoolThr
                0x0000000000475900       0x28 novoalignCSMPI.a(TThreadPool.o)
                0x0000000000475900                _ZTV8TPoolThr
 *fill*         0x0000000000475928       0x18 00
 .rodata        0x0000000000475940       0x28 novoalignCSMPI.a(TThreadPool.o)
 *fill*         0x0000000000475968        0x8 00
 .rodata._ZTI8TPoolThr
                0x0000000000475970       0x18 novoalignCSMPI.a(TThreadPool.o)
                0x0000000000475970                _ZTI8TPoolThr
 .rodata._ZTS8TPoolThr
                0x0000000000475988        0xa novoalignCSMPI.a(TThreadPool.o)
                0x0000000000475988                _ZTS8TPoolThr
 *fill*         0x0000000000475992        0x6 00
 .rodata.str1.8
                0x0000000000475998       0x30 novoalignCSMPI.a(TTimer.o)
 .rodata        0x00000000004759c8       0x28 novoalignCSMPI.a(TTimer.o)
 .rodata.cst8   0x00000000004759f0        0x8 novoalignCSMPI.a(TTimer.o)
 .rodata.str1.1
                0x00000000004759f8       0x66 novoalignCSMPI.a(wmsearch.o)
 *fill*         0x0000000000475a5e        0x2 00
 .rodata        0x0000000000475a60      0x168 novoalignCSMPI.a(wmsearch.o)
 *fill*         0x0000000000475bc8        0x8 00
 .rodata.cst16  0x0000000000475bd0       0x40 novoalignCSMPI.a(wmsearch.o)
 .rodata.cst8   0x0000000000475c10       0x40 novoalignCSMPI.a(wmsearch.o)
                                         0x98 (size before relaxing)
 .rodata.cst4   0x0000000000000000        0x4 novoalignCSMPI.a(wmsearch.o)
 .rodata.str1.1
                0x0000000000475c50       0x12 novoalignCSMPI.a(filehandle.o)
                                         0x14 (size before relaxing)
 .rodata.str1.1
                0x0000000000475c62       0x28 novoalignCSMPI.a(findamateCS.o)
 *fill*         0x0000000000475c8a       0x16 00
 .rodata        0x0000000000475ca0       0xa7 novoalignCSMPI.a(findamateCS.o)
 *fill*         0x0000000000475d47        0x9 00
 .rodata.cst16  0x0000000000475d50       0x40 novoalignCSMPI.a(findamateCS.o)
                                         0x50 (size before relaxing)
 .rodata.cst8   0x0000000000475d90       0x18 novoalignCSMPI.a(findamateCS.o)
 .rodata.str1.1
                0x0000000000475da8       0x23 novoalignCSMPI.a(fragdistMPI.o)
 *fill*         0x0000000000475dcb       0x15 00
 .rodata        0x0000000000475de0       0x2b novoalignCSMPI.a(fragdistMPI.o)
 *fill*         0x0000000000475e0b       0x15 00
 .rodata        0x0000000000475e20      0xba0 novoalignCSMPI.a(iubcodes.o)
                0x0000000000475e20                _ZN8iubcodes5ca_gtE
                0x0000000000476620                _ZN8iubcodes11iubsyntableE
                0x0000000000476640                _ZN8iubcodes7iub2strE
                0x0000000000476680                _ZN8iubcodes12iubcodetableE
 .rodata.str1.1
                0x00000000004769c0       0x1a novoalignCSMPI.a(keygenCS.o)
 *fill*         0x00000000004769da        0x6 00
 .rodata        0x00000000004769e0       0x44 novoalignCSMPI.a(keygenCS.o)
 *fill*         0x0000000000476a24        0x4 00
 .rodata.str1.8
                0x0000000000476a28       0xfa novoalignCSMPI.a(license.o)
 .rodata.str1.1
                0x0000000000476b22       0x54 novoalignCSMPI.a(license.o)
                                         0x74 (size before relaxing)
 *fill*         0x0000000000476b76        0xa 00
 .rodata        0x0000000000476b80       0x14 novoalignCSMPI.a(license.o)
 .rodata.cst4   0x0000000000476b94        0x4 novoalignCSMPI.a(license.o)
 *fill*         0x0000000000476b98        0x8 00
 .rodata.cst16  0x0000000000476ba0       0x20 novoalignCSMPI.a(license.o)
 .rodata.str1.1
                0x0000000000000000       0x1a novoalignCSMPI.a(nawmCS.o)
 .rodata.str1.8
                0x0000000000476bc0       0xe4 novoalignCSMPI.a(nawmCS.o)
 *fill*         0x0000000000476ca4       0x1c 00
 .rodata        0x0000000000476cc0       0xe4 novoalignCSMPI.a(nawmCS.o)
                0x0000000000476cc0                _ZN4nawm8entropyqE
 .rodata.cst8   0x0000000000000000        0x8 novoalignCSMPI.a(nawmCS.o)
 *fill*         0x0000000000476da4        0xc 00
 .rodata.cst16  0x0000000000476db0       0x20 novoalignCSMPI.a(nawmCS.o)
 .rodata.str1.1
                0x0000000000000000        0x5 novoalignCSMPI.a(needleCS.o)
 .rodata.cst8   0x0000000000476dd0       0x50 novoalignCSMPI.a(qryopt.o)
                                         0x60 (size before relaxing)
 .rodata.cst4   0x0000000000476e20        0x4 novoalignCSMPI.a(qryopt.o)
                                          0x8 (size before relaxing)
 *fill*         0x0000000000476e24       0x1c 00
 .rodata        0x0000000000476e40      0x190 novoalignCSMPI.a(shortnwCS.o)
 .rodata.cst16  0x0000000000476fd0       0xa0 novoalignCSMPI.a(shortnwCS.o)
                                         0xc0 (size before relaxing)
 .rodata.cst8   0x0000000000477070        0x8 novoalignCSMPI.a(shortnwCS.o)
 *fill*         0x0000000000477078        0x8 00
 .rodata        0x0000000000477080     0x11a4 novoalignCSMPI.a(cscodes.o)
                0x0000000000477080                _ZN7cscodes7t_na2csE
                0x0000000000478080                _ZN7cscodes7m_tqtokE
                0x00000000004780c0                _ZN7cscodes9m_i2i2tocE
                0x00000000004780e0                _ZN7cscodes9m_i4ctoi4E
                0x0000000000478120                _ZN7cscodes13xover_qualityE
                0x0000000000478180                _ZN7cscodes13xover_penaltyE
 .rodata.cst16  0x0000000000000000       0x10 novoalignCSMPI.a(cscodes.o)
 *fill*         0x0000000000478224        0x4 00
 .rodata.str1.8
                0x0000000000478228      0x932 ./tcmalloc/libtcmalloc.a(libtcmalloc_la-tcmalloc.o)
                                        0x95e (size before relaxing)
 .rodata.str1.1
                0x0000000000478b5a      0x108 ./tcmalloc/libtcmalloc.a(libtcmalloc_la-tcmalloc.o)
                                        0x10f (size before relaxing)
 *fill*         0x0000000000478c62        0xe 00
 .rodata._ZTS22TCMallocImplementation
                0x0000000000478c70       0x19 ./tcmalloc/libtcmalloc.a(libtcmalloc_la-tcmalloc.o)
                0x0000000000478c70                _ZTS22TCMallocImplementation
 *fill*         0x0000000000478c89        0x7 00
 .rodata._ZTI22TCMallocImplementation
                0x0000000000478c90       0x18 ./tcmalloc/libtcmalloc.a(libtcmalloc_la-tcmalloc.o)
                0x0000000000478c90                _ZTI22TCMallocImplementation
 *fill*         0x0000000000478ca8       0x18 00
 .rodata._ZTV22TCMallocImplementation
                0x0000000000478cc0       0xe8 ./tcmalloc/libtcmalloc.a(libtcmalloc_la-tcmalloc.o)
                0x0000000000478cc0                _ZTV22TCMallocImplementation
 .rodata.cst8   0x0000000000478da8        0x8 ./tcmalloc/libtcmalloc.a(libtcmalloc_la-tcmalloc.o)
 .rodata.str1.1
                0x0000000000478db0       0x4c ./tcmalloc/libtcmalloc.a(atomicops-internals-x86.o)
                                         0x4e (size before relaxing)
 *fill*         0x0000000000478dfc        0x4 00
 .rodata.str1.8
                0x0000000000478e00       0x4f ./tcmalloc/libtcmalloc.a(atomicops-internals-x86.o)
 *fill*         0x0000000000478e4f       0x11 00
 .rodata        0x0000000000478e60       0x31 ./tcmalloc/libtcmalloc.a(atomicops-internals-x86.o)
 .rodata.str1.1
                0x0000000000478e91       0x26 ./tcmalloc/libtcmalloc.a(dynamic_annotations.o)
 *fill*         0x0000000000478eb7        0x1 00
 .rodata.cst8   0x0000000000478eb8        0x8 ./tcmalloc/libtcmalloc.a(dynamic_annotations.o)
                                         0x18 (size before relaxing)
 .rodata.str1.1
                0x0000000000478ec0       0x34 ./tcmalloc/libtcmalloc.a(libtcmalloc_internal_la-central_freelist.o)
 *fill*         0x0000000000478ef4        0x4 00
 .rodata.str1.8
                0x0000000000478ef8       0xc3 ./tcmalloc/libtcmalloc.a(libtcmalloc_internal_la-common.o)
 .rodata.str1.1
                0x0000000000478fbb       0x7a ./tcmalloc/libtcmalloc.a(libtcmalloc_internal_la-common.o)
 *fill*         0x0000000000479035        0x3 00
 .rodata.cst8   0x0000000000479038        0x8 ./tcmalloc/libtcmalloc.a(libtcmalloc_internal_la-common.o)
 .rodata.str1.1
                0x0000000000479040        0x5 ./tcmalloc/libtcmalloc.a(libtcmalloc_internal_la-internal_logging.o)
                                          0x9 (size before relaxing)
 *fill*         0x0000000000479045        0xb 00
 .rodata        0x0000000000479050       0x11 ./tcmalloc/libtcmalloc.a(libtcmalloc_internal_la-internal_logging.o)
 .rodata.str1.1
                0x0000000000479061       0x8c ./tcmalloc/libtcmalloc.a(libtcmalloc_internal_la-malloc_extension.o)
                                         0x96 (size before relaxing)
 *fill*         0x00000000004790ed        0x3 00
 .rodata.str1.8
                0x00000000004790f0      0x16c ./tcmalloc/libtcmalloc.a(libtcmalloc_internal_la-malloc_extension.o)
 .rodata._ZTS12SysAllocator
                0x000000000047925c        0xf ./tcmalloc/libtcmalloc.a(libtcmalloc_internal_la-malloc_extension.o)
                0x000000000047925c                _ZTS12SysAllocator
 *fill*         0x000000000047926b        0x5 00
 .rodata._ZTS15MallocExtension
                0x0000000000479270       0x12 ./tcmalloc/libtcmalloc.a(libtcmalloc_internal_la-malloc_extension.o)
                0x0000000000479270                _ZTS15MallocExtension
 *fill*         0x0000000000479282        0x6 00
 .rodata.cst8   0x0000000000479288        0x8 ./tcmalloc/libtcmalloc.a(libtcmalloc_internal_la-malloc_extension.o)
 .rodata.str1.1
                0x0000000000479290      0x21f ./tcmalloc/libtcmalloc.a(libtcmalloc_internal_la-malloc_hook.o)
                                        0x221 (size before relaxing)
 *fill*         0x00000000004794af        0x1 00
 .rodata.str1.8
                0x00000000004794b0      0x254 ./tcmalloc/libtcmalloc.a(libtcmalloc_internal_la-malloc_hook.o)
 *fill*         0x0000000000479704        0x4 00
 .rodata.str1.8
                0x0000000000479708       0x29 ./tcmalloc/libtcmalloc.a(libtcmalloc_internal_la-page_heap.o)
                                         0x89 (size before relaxing)
 .rodata.str1.1
                0x0000000000479731       0xa1 ./tcmalloc/libtcmalloc.a(libtcmalloc_internal_la-page_heap.o)
                                         0xbb (size before relaxing)
 *fill*         0x00000000004797d2        0x6 00
 .rodata.cst8   0x00000000004797d8       0x10 ./tcmalloc/libtcmalloc.a(libtcmalloc_internal_la-page_heap.o)
                                         0x20 (size before relaxing)
 .rodata.str1.1
                0x00000000004797e8       0x1a ./tcmalloc/libtcmalloc.a(libtcmalloc_internal_la-sampler.o)
 *fill*         0x0000000000479802        0x6 00
 .rodata.cst8   0x0000000000479808       0x20 ./tcmalloc/libtcmalloc.a(libtcmalloc_internal_la-sampler.o)
                                         0x40 (size before relaxing)
 .rodata.str1.8
                0x0000000000000000       0x5a ./tcmalloc/libtcmalloc.a(libtcmalloc_internal_la-span.o)
 .rodata.str1.1
                0x0000000000000000       0x1a ./tcmalloc/libtcmalloc.a(libtcmalloc_internal_la-span.o)
 .rodata.str1.8
                0x0000000000479828       0x55 ./tcmalloc/libtcmalloc.a(libtcmalloc_internal_la-stack_trace_table.o)
                                         0xb5 (size before relaxing)
 .rodata.str1.1
                0x000000000047987d       0x19 ./tcmalloc/libtcmalloc.a(libtcmalloc_internal_la-stack_trace_table.o)
                                         0x33 (size before relaxing)
 .rodata.str1.1
                0x0000000000479896       0x16 ./tcmalloc/libtcmalloc.a(libtcmalloc_internal_la-static_vars.o)
                                         0x32 (size before relaxing)
 .rodata.str1.8
                0x0000000000000000       0xaf ./tcmalloc/libtcmalloc.a(libtcmalloc_internal_la-static_vars.o)
 .rodata.str1.1
                0x00000000004798ac       0x5b ./tcmalloc/libtcmalloc.a(libtcmalloc_internal_la-system-alloc.o)
 *fill*         0x0000000000479907        0x9 00
 .rodata        0x0000000000479910       0x41 ./tcmalloc/libtcmalloc.a(libtcmalloc_internal_la-system-alloc.o)
 *fill*         0x0000000000479951        0x7 00
 .rodata.str1.8
                0x0000000000479958       0x20 ./tcmalloc/libtcmalloc.a(libtcmalloc_internal_la-system-alloc.o)
 *fill*         0x0000000000479978        0x8 00
 .rodata._ZTS16SbrkSysAllocator
                0x0000000000479980       0x13 ./tcmalloc/libtcmalloc.a(libtcmalloc_internal_la-system-alloc.o)
                0x0000000000479980                _ZTS16SbrkSysAllocator
 *fill*         0x0000000000479993        0xd 00
 .rodata._ZTS16MmapSysAllocator
                0x00000000004799a0       0x13 ./tcmalloc/libtcmalloc.a(libtcmalloc_internal_la-system-alloc.o)
                0x00000000004799a0                _ZTS16MmapSysAllocator
 *fill*         0x00000000004799b3        0xd 00
 .rodata._ZTS18DevMemSysAllocator
                0x00000000004799c0       0x15 ./tcmalloc/libtcmalloc.a(libtcmalloc_internal_la-system-alloc.o)
                0x00000000004799c0                _ZTS18DevMemSysAllocator
 *fill*         0x00000000004799d5        0xb 00
 .rodata._ZTS19DefaultSysAllocator
                0x00000000004799e0       0x16 ./tcmalloc/libtcmalloc.a(libtcmalloc_internal_la-system-alloc.o)
                0x00000000004799e0                _ZTS19DefaultSysAllocator
 *fill*         0x00000000004799f6        0x2 00
 .rodata.str1.8
                0x00000000004799f8       0x56 ./tcmalloc/libtcmalloc.a(libtcmalloc_internal_la-thread_cache.o)
                                         0xb6 (size before relaxing)
 .rodata.str1.1
                0x0000000000479a4e       0x2e ./tcmalloc/libtcmalloc.a(libtcmalloc_internal_la-thread_cache.o)
                                         0x48 (size before relaxing)
 *fill*         0x0000000000479a7c        0x4 00
 .rodata.cst8   0x0000000000479a80       0x10 ./tcmalloc/libtcmalloc.a(libtcmalloc_internal_la-thread_cache.o)
                                         0x20 (size before relaxing)
 .rodata.str1.1
                0x0000000000479a90       0x12 ./tcmalloc/libtcmalloc.a(logging.o)
 *fill*         0x0000000000479aa2        0x2 00
 .rodata        0x0000000000479aa4        0x4 ./tcmalloc/libtcmalloc.a(spinlock.o)
                0x0000000000479aa4                _ZN8SpinLock18LINKER_INITIALIZEDE
 .rodata.str1.8
                0x0000000000479aa8       0x1f ./tcmalloc/libtcmalloc.a(stacktrace.o)
 .rodata.str1.1
                0x0000000000479ac7        0x9 ./tcmalloc/libtcmalloc.a(stacktrace.o)
 *fill*         0x0000000000479ad0       0x10 00
 .rodata        0x0000000000479ae0      0x103 ./tcmalloc/libtcmalloc.a(stacktrace.o)
 .rodata.str1.1
                0x0000000000479be3      0x101 ./tcmalloc/libtcmalloc.a(sysinfo.o)
                                        0x13e (size before relaxing)
 *fill*         0x0000000000479ce4        0x4 00
 .rodata.str1.8
                0x0000000000479ce8      0x138 ./tcmalloc/libtcmalloc.a(sysinfo.o)
 .rodata        0x0000000000479e20       0x83 ./tcmalloc/libtcmalloc.a(sysinfo.o)
 .rodata.cst8   0x0000000000000000       0x20 ./tcmalloc/libtcmalloc.a(sysinfo.o)
 .rodata.str1.1
                0x0000000000479ea3      0x337 ./tcmalloc/libtcmalloc.a(libtcmalloc_la-heap-checker.o)
                                        0x363 (size before relaxing)
 *fill*         0x000000000047a1da        0x6 00
 .rodata.str1.8
                0x000000000047a1e0     0x1bcc ./tcmalloc/libtcmalloc.a(libtcmalloc_la-heap-checker.o)
                                       0x1c1f (size before relaxing)
 .rodata        0x000000000047bdac        0xf ./tcmalloc/libtcmalloc.a(libtcmalloc_la-heap-checker.o)
 .rodata.str1.1
                0x000000000047bdbb       0xd3 ./tcmalloc/libtcmalloc.a(libtcmalloc_internal_la-heap-profile-table.o)
                                         0xd9 (size before relaxing)
 *fill*         0x000000000047be8e        0x2 00
 .rodata.str1.8
                0x000000000047be90      0x12c ./tcmalloc/libtcmalloc.a(libtcmalloc_internal_la-heap-profile-table.o)
 *fill*         0x000000000047bfbc        0x4 00
 .rodata        0x000000000047bfc0       0x43 ./tcmalloc/libtcmalloc.a(libtcmalloc_internal_la-heap-profile-table.o)
                0x000000000047bfc8                _ZN16HeapProfileTable14kMaxStackDepthE
                0x000000000047bfcc                _ZN16HeapProfileTable8kFileExtE
 *fill*         0x000000000047c003        0x5 00
 .rodata.str1.8
                0x000000000047c008      0x755 ./tcmalloc/libtcmalloc.a(libtcmalloc_internal_la-low_level_alloc.o)
 *fill*         0x000000000047c75d        0x3 00
 .rodata.str1.8
                0x000000000047c760      0x7e3 ./tcmalloc/libtcmalloc.a(libtcmalloc_internal_la-memory_region_map.o)
 .rodata.str1.1
                0x000000000047cf43      0x149 ./tcmalloc/libtcmalloc.a(libtcmalloc_internal_la-memory_region_map.o)
                                        0x14b (size before relaxing)
 .rodata.str1.1
                0x000000000047d08c       0x7d ./tcmalloc/libtcmalloc.a(libtcmalloc_internal_la-symbolize.o)
                                         0xad (size before relaxing)
 *fill*         0x000000000047d109        0x7 00
 .rodata.str1.8
                0x000000000047d110      0x138 ./tcmalloc/libtcmalloc.a(libtcmalloc_internal_la-symbolize.o)
                                        0x132 (size before relaxing)
 .rodata.str1.1
                0x000000000047d248        0xe ./tcmalloc/libtcmalloc.a(libtcmalloc_la-linuxthreads.o)
 *fill*         0x000000000047d256        0xa 00
 .rodata        0x000000000047d260       0x1c ./tcmalloc/libtcmalloc.a(libtcmalloc_la-linuxthreads.o)
 *fill*         0x000000000047d27c        0x4 00
 .rodata        0x000000000047d280       0x90 ./unwind/libunwind.a(Lregs.o)
 .rodata        0x000000000047d310      0x110 ./unwind/libunwind.a(Linit.o)
 .rodata.str1.1
                0x000000000047d420        0x5 ./unwind/libunwind.a(elf64.o)
 *fill*         0x000000000047d425        0x3 00
 .rodata        0x000000000047d428      0x608 ./unwind/libunwind.a(Lparser.o)
 .rodata        0x000000000047da30       0x68 ./unwind/libunwind.a(Lpe.o)
 *fill*         0x000000000047da98        0x8 00
 .rodata        0x000000000047daa0      0x620 ./unwind/libunwind.a(Lexpr.o)

.rodata1
 *(.rodata1)

.eh_frame_hdr   0x000000000047e0c0     0x1e7c
 *(.eh_frame_hdr)
 .eh_frame_hdr  0x000000000047e0c0     0x1e7c /usr/lib/gcc/x86_64-linux-gnu/4.6.1/../../../x86_64-linux-gnu/crt1.o

.eh_frame       0x000000000047ff40     0xabac
 *(.eh_frame)
 .eh_frame      0x000000000047ff40       0x40 /usr/lib/gcc/x86_64-linux-gnu/4.6.1/../../../x86_64-linux-gnu/crt1.o
 .eh_frame      0x000000000047ff80      0x220 mpidriver.o
                                        0x208 (size before relaxing)
 .eh_frame      0x00000000004801a0       0x50 trace.o
                                         0x68 (size before relaxing)
 .eh_frame      0x00000000004801f0      0x1c0 novoalignCSMPI.a(novoalignMPI_main.o)
 .eh_frame      0x00000000004803b0      0x1a8 novoalignCSMPI.a(fragdist.o)
 .eh_frame      0x0000000000480558      0x170 novoalignCSMPI.a(indelstats.o)
                                        0x178 (size before relaxing)
 .eh_frame      0x00000000004806c8      0x360 novoalignCSMPI.a(ksgroups.o)
                                        0x378 (size before relaxing)
 .eh_frame      0x0000000000480a28      0x2b0 novoalignCSMPI.a(ksindex.o)
                                        0x2b8 (size before relaxing)
 .eh_frame      0x0000000000480cd8      0xa90 novoalignCSMPI.a(novoalignmpi.o)
                                        0xa58 (size before relaxing)
 .eh_frame      0x0000000000481768       0x18 novoalignCSMPI.a(novolib.o)
                                         0x30 (size before relaxing)
 .eh_frame      0x0000000000481780      0x2a0 novoalignCSMPI.a(novoparam.o)
                                        0x2b8 (size before relaxing)
 .eh_frame      0x0000000000481a20       0x20 novoalignCSMPI.a(posteriorP.o)
                                         0x38 (size before relaxing)
 .eh_frame      0x0000000000481a40      0x1f0 novoalignCSMPI.a(prbcalibrateCS.o)
                                        0x218 (size before relaxing)
 .eh_frame      0x0000000000481c30       0x90 novoalignCSMPI.a(prbcalibrateMPI.o)
                                         0x98 (size before relaxing)
 .eh_frame      0x0000000000481cc0       0x68 novoalignCSMPI.a(qualconvert.o)
                                         0x80 (size before relaxing)
 .eh_frame      0x0000000000481d28      0x168 novoalignCSMPI.a(queryfolder.o)
                                        0x190 (size before relaxing)
 .eh_frame      0x0000000000481e90       0xc8 novoalignCSMPI.a(queryformatCS.o)
                                         0xf8 (size before relaxing)
 .eh_frame      0x0000000000481f58      0x118 novoalignCSMPI.a(queryreader.o)
                                        0x150 (size before relaxing)
 .eh_frame      0x0000000000482070       0xd0 novoalignCSMPI.a(queryreaderCS.o)
                                         0xe0 (size before relaxing)
 .eh_frame      0x0000000000482140      0x198 novoalignCSMPI.a(reporter.o)
                                        0x290 (size before relaxing)
 .eh_frame      0x00000000004822d8      0x300 novoalignCSMPI.a(rptNative.o)
                                        0x448 (size before relaxing)
 .eh_frame      0x00000000004825d8      0x540 novoalignCSMPI.a(rptSAM.o)
                                        0x618 (size before relaxing)
 .eh_frame      0x0000000000482b18      0x1a8 novoalignCSMPI.a(TThread.o)
                                        0x1c0 (size before relaxing)
 .eh_frame      0x0000000000482cc0      0x388 novoalignCSMPI.a(TThreadPool.o)
                                        0x390 (size before relaxing)
 .eh_frame      0x0000000000483048       0x50 novoalignCSMPI.a(TTimer.o)
                                         0x68 (size before relaxing)
 .eh_frame      0x0000000000483098      0xff0 novoalignCSMPI.a(wmsearch.o)
                                       0x1078 (size before relaxing)
 .eh_frame      0x0000000000484088      0x340 novoalignCSMPI.a(filehandle.o)
                                        0x350 (size before relaxing)
 .eh_frame      0x00000000004843c8       0xe8 novoalignCSMPI.a(findamateCS.o)
                                         0xf8 (size before relaxing)
 .eh_frame      0x00000000004844b0       0x98 novoalignCSMPI.a(fragdistMPI.o)
                                         0xa0 (size before relaxing)
 .eh_frame      0x0000000000484548      0x120 novoalignCSMPI.a(iubcodes.o)
 .eh_frame      0x0000000000484668      0x138 novoalignCSMPI.a(keygenCS.o)
                                        0x140 (size before relaxing)
 .eh_frame      0x00000000004847a0       0xc0 novoalignCSMPI.a(license.o)
                                         0xf0 (size before relaxing)
 .eh_frame      0x0000000000484860      0x318 novoalignCSMPI.a(nawmCS.o)
                                        0x310 (size before relaxing)
 .eh_frame      0x0000000000484b78       0xb8 novoalignCSMPI.a(needleCS.o)
                                         0xd0 (size before relaxing)
 .eh_frame      0x0000000000484c30       0xb8 novoalignCSMPI.a(qryopt.o)
                                         0xd0 (size before relaxing)
 .eh_frame      0x0000000000484ce8      0x108 novoalignCSMPI.a(shortnwCS.o)
                                        0x118 (size before relaxing)
 .eh_frame      0x0000000000484df0       0x50 novoalignCSMPI.a(cscodes.o)
                                         0x60 (size before relaxing)
 .eh_frame      0x0000000000484e40      0xaf0 ./tcmalloc/libtcmalloc.a(libtcmalloc_la-tcmalloc.o)
                                        0xa98 (size before relaxing)
 .eh_frame      0x0000000000485930       0xa8 ./tcmalloc/libtcmalloc.a(atomicops-internals-x86.o)
                                         0xb8 (size before relaxing)
 .eh_frame      0x00000000004859d8       0x50 ./tcmalloc/libtcmalloc.a(dynamic_annotations.o)
                                         0x60 (size before relaxing)
 .eh_frame      0x0000000000485a28      0x230 ./tcmalloc/libtcmalloc.a(libtcmalloc_internal_la-central_freelist.o)
                                        0x238 (size before relaxing)
 .eh_frame      0x0000000000485c58       0xe0 ./tcmalloc/libtcmalloc.a(libtcmalloc_internal_la-common.o)
                                         0xe8 (size before relaxing)
 .eh_frame      0x0000000000485d38       0xd8 ./tcmalloc/libtcmalloc.a(libtcmalloc_internal_la-internal_logging.o)
                                         0xe0 (size before relaxing)
 .eh_frame      0x0000000000485e10      0x630 ./tcmalloc/libtcmalloc.a(libtcmalloc_internal_la-malloc_extension.o)
                                        0x5a0 (size before relaxing)
 .eh_frame      0x0000000000486440      0x9f8 ./tcmalloc/libtcmalloc.a(libtcmalloc_internal_la-malloc_hook.o)
                                        0x9a0 (size before relaxing)
 .eh_frame      0x0000000000486e38       0x70 ./tcmalloc/libtcmalloc.a(libtcmalloc_internal_la-maybe_threads.o)
                                         0x78 (size before relaxing)
 .eh_frame      0x0000000000486ea8      0x438 ./tcmalloc/libtcmalloc.a(libtcmalloc_internal_la-page_heap.o)
                                        0x410 (size before relaxing)
 .eh_frame      0x00000000004872e0       0xa8 ./tcmalloc/libtcmalloc.a(libtcmalloc_internal_la-sampler.o)
                                         0xb8 (size before relaxing)
 .eh_frame      0x0000000000487388       0xa0 ./tcmalloc/libtcmalloc.a(libtcmalloc_internal_la-span.o)
 .eh_frame      0x0000000000487428       0xe8 ./tcmalloc/libtcmalloc.a(libtcmalloc_internal_la-stack_trace_table.o)
                                         0xf0 (size before relaxing)
 .eh_frame      0x0000000000487510       0xb8 ./tcmalloc/libtcmalloc.a(libtcmalloc_internal_la-static_vars.o)
                                        0x138 (size before relaxing)
 .eh_frame      0x00000000004875c8      0x240 ./tcmalloc/libtcmalloc.a(libtcmalloc_internal_la-system-alloc.o)
                                        0x228 (size before relaxing)
 .eh_frame      0x0000000000487808      0x338 ./tcmalloc/libtcmalloc.a(libtcmalloc_internal_la-thread_cache.o)
                                        0x320 (size before relaxing)
 .eh_frame      0x0000000000487b40       0x88 ./tcmalloc/libtcmalloc.a(logging.o)
                                         0xa0 (size before relaxing)
 .eh_frame      0x0000000000487bc8       0xb0 ./tcmalloc/libtcmalloc.a(spinlock.o)
                                         0xb8 (size before relaxing)
 .eh_frame      0x0000000000487c78       0xa8 ./tcmalloc/libtcmalloc.a(spinlock_internal.o)
                                         0xb8 (size before relaxing)
 .eh_frame      0x0000000000487d20       0xb0 ./tcmalloc/libtcmalloc.a(stacktrace.o)
                                         0xc0 (size before relaxing)
 .eh_frame      0x0000000000487dd0      0x478 ./tcmalloc/libtcmalloc.a(sysinfo.o)
                                        0x4a0 (size before relaxing)
 .eh_frame      0x0000000000488248      0xcc8 ./tcmalloc/libtcmalloc.a(libtcmalloc_la-heap-checker.o)
                                        0xcd0 (size before relaxing)
 .eh_frame      0x0000000000488f10       0x38 ./tcmalloc/libtcmalloc.a(libtcmalloc_la-heap-checker-bcad.o)
                                         0x50 (size before relaxing)
 .eh_frame      0x0000000000488f48      0xa08 ./tcmalloc/libtcmalloc.a(libtcmalloc_internal_la-heap-profile-table.o)
                                        0x9f8 (size before relaxing)
 .eh_frame      0x0000000000489950      0x280 ./tcmalloc/libtcmalloc.a(libtcmalloc_internal_la-low_level_alloc.o)
                                        0x268 (size before relaxing)
 .eh_frame      0x0000000000489bd0      0x488 ./tcmalloc/libtcmalloc.a(libtcmalloc_internal_la-memory_region_map.o)
                                        0x4b8 (size before relaxing)
 .eh_frame      0x000000000048a058       0x60 ./tcmalloc/libtcmalloc.a(libtcmalloc_internal_la-raw_printer.o)
                                         0x70 (size before relaxing)
 .eh_frame      0x000000000048a0b8      0x150 ./tcmalloc/libtcmalloc.a(libtcmalloc_internal_la-symbolize.o)
                                        0x1a0 (size before relaxing)
 .eh_frame      0x000000000048a208      0x178 ./tcmalloc/libtcmalloc.a(libtcmalloc_la-linuxthreads.o)
                                        0x1a8 (size before relaxing)
 .eh_frame      0x000000000048a380       0x38 ./unwind/libunwind.a(backtrace.o)
                                         0x50 (size before relaxing)
 .eh_frame      0x000000000048a3b8       0x18 ./unwind/libunwind.a(Lget_reg.o)
                                         0x30 (size before relaxing)
 .eh_frame      0x000000000048a3d0       0x20 ./unwind/libunwind.a(Linit_local.o)
                                         0x38 (size before relaxing)
 .eh_frame      0x000000000048a3f0       0x30 ./unwind/libunwind.a(Lregs.o)
                                         0x40 (size before relaxing)
 .eh_frame      0x000000000048a420       0x28 ./unwind/libunwind.a(lt1-Lstep.o)
                                         0x40 (size before relaxing)
 .eh_frame      0x000000000048a448       0x18 ./unwind/libunwind.a(Lstep.o)
                                         0x30 (size before relaxing)
 .eh_frame      0x000000000048a460       0x20 ./unwind/libunwind.a(Lglobal.o)
                                         0x38 (size before relaxing)
 .eh_frame      0x000000000048a480      0x100 ./unwind/libunwind.a(Linit.o)
 .eh_frame      0x000000000048a580       0x20 ./unwind/libunwind.a(Lis_signal_frame.o)
                                         0x38 (size before relaxing)
 .eh_frame      0x000000000048a5a0       0x58 ./unwind/libunwind.a(Lresume.o)
                                         0x68 (size before relaxing)
 .eh_frame      0x000000000048a5f8       0x18 ./unwind/libunwind.a(init.o)
                                         0x30 (size before relaxing)
 .eh_frame      0x000000000048a610       0x20 ./unwind/libunwind.a(flush_cache.o)
                                         0x38 (size before relaxing)
 .eh_frame      0x000000000048a630       0x18 ./unwind/libunwind.a(global.o)
                                         0x30 (size before relaxing)
 .eh_frame      0x000000000048a648       0x50 ./unwind/libunwind.a(elf64.o)
                                         0x68 (size before relaxing)
 .eh_frame      0x000000000048a698       0x18 ./unwind/libunwind.a(is_fpreg.o)
                                         0x30 (size before relaxing)
 .eh_frame      0x000000000048a6b0       0x18 ./unwind/libunwind.a(Lget_accessors.o)
                                         0x30 (size before relaxing)
 .eh_frame      0x000000000048a6c8      0x120 ./unwind/libunwind.a(Lparser.o)
                                        0x128 (size before relaxing)
 .eh_frame      0x000000000048a7e8       0x20 ./unwind/libunwind.a(Lpe.o)
                                         0x38 (size before relaxing)
 .eh_frame      0x000000000048a808       0xf0 ./unwind/libunwind.a(Lfind_proc_info-lsb.o)
                                         0xf8 (size before relaxing)
 .eh_frame      0x000000000048a8f8       0x38 ./unwind/libunwind.a(os-linux.o)
                                         0x50 (size before relaxing)
 .eh_frame      0x000000000048a930       0x98 ./unwind/libunwind.a(mempool.o)
                                         0xa8 (size before relaxing)
 .eh_frame      0x000000000048a9c8       0x18 ./unwind/libunwind.a(Lfind_dynamic_proc_info.o)
                                         0x30 (size before relaxing)
 .eh_frame      0x000000000048a9e0       0x18 ./unwind/libunwind.a(Lput_dynamic_unwind_info.o)
                                         0x30 (size before relaxing)
 .eh_frame      0x000000000048a9f8       0x40 ./unwind/libunwind.a(Lexpr.o)
                                         0x58 (size before relaxing)
 .eh_frame      0x000000000048aa38       0x28 ./unwind/libunwind.a(Lfde.o)
                                         0x40 (size before relaxing)
 .eh_frame      0x000000000048aa60       0x18 ./unwind/libunwind.a(dyn-info-list.o)
                                         0x30 (size before relaxing)
 .eh_frame      0x000000000048aa78       0x18 ./unwind/libunwind.a(Ldyn-extract.o)
                                         0x30 (size before relaxing)
 .eh_frame      0x000000000048aa90       0x18 /usr/lib/x86_64-linux-gnu/libpthread_nonshared.a(pthread_atfork.oS)
                                         0x30 (size before relaxing)
 .eh_frame      0x000000000048aaa8       0x40 /usr/lib/x86_64-linux-gnu/libc_nonshared.a(elf-init.oS)
                                         0x58 (size before relaxing)
 .eh_frame      0x000000000048aae8        0x4 /usr/lib/gcc/x86_64-linux-gnu/4.6.1/crtend.o

.gcc_except_table
                0x000000000048aaec     0x1082
 *(.gcc_except_table .gcc_except_table.*)
 .gcc_except_table
                0x000000000048aaec       0x45 novoalignCSMPI.a(novoalignMPI_main.o)
 .gcc_except_table
                0x000000000048ab31        0xf novoalignCSMPI.a(ksgroups.o)
 .gcc_except_table
                0x000000000048ab40        0xf novoalignCSMPI.a(ksindex.o)
 .gcc_except_table
                0x000000000048ab4f      0x1c2 novoalignCSMPI.a(novoalignmpi.o)
 .gcc_except_table
                0x000000000048ad11       0x5e novoalignCSMPI.a(novoparam.o)
 .gcc_except_table
                0x000000000048ad6f        0xe novoalignCSMPI.a(prbcalibrateCS.o)
 .gcc_except_table
                0x000000000048ad7d       0x20 novoalignCSMPI.a(queryfolder.o)
 .gcc_except_table
                0x000000000048ad9d       0xd3 novoalignCSMPI.a(queryformatCS.o)
 .gcc_except_table
                0x000000000048ae70       0x5f novoalignCSMPI.a(queryreader.o)
 .gcc_except_table
                0x000000000048aecf       0x1c novoalignCSMPI.a(reporter.o)
 .gcc_except_table
                0x000000000048aeeb       0x6e novoalignCSMPI.a(rptNative.o)
 .gcc_except_table
                0x000000000048af59       0xab novoalignCSMPI.a(rptSAM.o)
 .gcc_except_table
                0x000000000048b004       0x1b novoalignCSMPI.a(TThread.o)
 .gcc_except_table
                0x000000000048b01f       0x51 novoalignCSMPI.a(TThreadPool.o)
 .gcc_except_table
                0x000000000048b070      0x282 novoalignCSMPI.a(wmsearch.o)
 .gcc_except_table
                0x000000000048b2f2       0x1c novoalignCSMPI.a(filehandle.o)
 .gcc_except_table
                0x000000000048b30e       0x1a novoalignCSMPI.a(license.o)
 .gcc_except_table
                0x000000000048b328      0x570 ./tcmalloc/libtcmalloc.a(libtcmalloc_la-tcmalloc.o)
 .gcc_except_table
                0x000000000048b898       0x2e ./tcmalloc/libtcmalloc.a(sysinfo.o)
 *fill*         0x000000000048b8c6        0x2 00
 .gcc_except_table
                0x000000000048b8c8      0x292 ./tcmalloc/libtcmalloc.a(libtcmalloc_la-heap-checker.o)
 .gcc_except_table
                0x000000000048bb5a       0x14 ./tcmalloc/libtcmalloc.a(libtcmalloc_la-linuxthreads.o)

.exception_ranges
 *(.exception_ranges .exception_ranges*)
                0x000000000048bb6e                . = (ALIGN (0x200000) - ((0x200000 - .) & 0x1fffff))
                0x000000000068c62e                . = DATA_SEGMENT_ALIGN (0x200000, 0x1000)

.eh_frame
 *(.eh_frame)

.gcc_except_table
 *(.gcc_except_table .gcc_except_table.*)

.exception_ranges
 *(.exception_ranges .exception_ranges*)

.tdata
 *(.tdata .tdata.* .gnu.linkonce.td.*)

.tbss           0x000000000068c630       0x18
 *(.tbss .tbss.* .gnu.linkonce.tb.*)
 .tbss          0x000000000068c630       0x10 ./tcmalloc/libtcmalloc.a(libtcmalloc_internal_la-thread_cache.o)
                0x000000000068c630                _ZN8tcmalloc11ThreadCache17threadlocal_data_E
 .tbss          0x000000000068c640        0x4 ./tcmalloc/libtcmalloc.a(stacktrace.o)
 .tbss          0x000000000068c644        0x4 ./tcmalloc/libtcmalloc.a(libtcmalloc_la-heap-checker.o)
 *(.tcommon)

.preinit_array  0x000000000068c630        0x0
                0x000000000068c630                PROVIDE (__preinit_array_start, .)
 *(.preinit_array)
                0x000000000068c630                PROVIDE (__preinit_array_end, .)

.init_array     0x000000000068c630      0x168
                0x000000000068c630                PROVIDE (__init_array_start, .)
 *(SORT(.init_array.*) SORT(.ctors.*))
 *(.init_array)
 *(EXCLUDE_FILE(*crtend?.o *crtend.o *crtbegin?.o *crtbegin.o) .ctors)
 .ctors         0x000000000068c630        0x8 novoalignCSMPI.a(novoalignMPI_main.o)
 .ctors         0x000000000068c638        0x8 novoalignCSMPI.a(fragdist.o)
 .ctors         0x000000000068c640        0x8 novoalignCSMPI.a(indelstats.o)
 .ctors         0x000000000068c648        0x8 novoalignCSMPI.a(ksindex.o)
 .ctors         0x000000000068c650        0x8 novoalignCSMPI.a(novoalignmpi.o)
 .ctors         0x000000000068c658        0x8 novoalignCSMPI.a(novoparam.o)
 .ctors         0x000000000068c660        0x8 novoalignCSMPI.a(prbcalibrateCS.o)
 .ctors         0x000000000068c668        0x8 novoalignCSMPI.a(prbcalibrateMPI.o)
 .ctors         0x000000000068c670        0x8 novoalignCSMPI.a(qualconvert.o)
 .ctors         0x000000000068c678        0x8 novoalignCSMPI.a(queryfolder.o)
 .ctors         0x000000000068c680        0x8 novoalignCSMPI.a(queryformatCS.o)
 .ctors         0x000000000068c688        0x8 novoalignCSMPI.a(queryreader.o)
 .ctors         0x000000000068c690        0x8 novoalignCSMPI.a(queryreaderCS.o)
 .ctors         0x000000000068c698        0x8 novoalignCSMPI.a(reporter.o)
 .ctors         0x000000000068c6a0        0x8 novoalignCSMPI.a(rptNative.o)
 .ctors         0x000000000068c6a8        0x8 novoalignCSMPI.a(rptSAM.o)
 .ctors         0x000000000068c6b0        0x8 novoalignCSMPI.a(TThread.o)
 .ctors         0x000000000068c6b8        0x8 novoalignCSMPI.a(TThreadPool.o)
 .ctors         0x000000000068c6c0        0x8 novoalignCSMPI.a(TTimer.o)
 .ctors         0x000000000068c6c8        0x8 novoalignCSMPI.a(wmsearch.o)
 .ctors         0x000000000068c6d0        0x8 novoalignCSMPI.a(filehandle.o)
 .ctors         0x000000000068c6d8        0x8 novoalignCSMPI.a(findamateCS.o)
 .ctors         0x000000000068c6e0        0x8 novoalignCSMPI.a(fragdistMPI.o)
 .ctors         0x000000000068c6e8        0x8 novoalignCSMPI.a(iubcodes.o)
 .ctors         0x000000000068c6f0        0x8 novoalignCSMPI.a(keygenCS.o)
 .ctors         0x000000000068c6f8        0x8 novoalignCSMPI.a(nawmCS.o)
 .ctors         0x000000000068c700        0x8 novoalignCSMPI.a(needleCS.o)
 .ctors         0x000000000068c708        0x8 novoalignCSMPI.a(qryopt.o)
 .ctors         0x000000000068c710        0x8 novoalignCSMPI.a(shortnwCS.o)
 .ctors         0x000000000068c718        0x8 novoalignCSMPI.a(cscodes.o)
 .ctors         0x000000000068c720        0x8 ./tcmalloc/libtcmalloc.a(libtcmalloc_la-tcmalloc.o)
 .ctors         0x000000000068c728        0x8 ./tcmalloc/libtcmalloc.a(atomicops-internals-x86.o)
 .ctors         0x000000000068c730        0x8 ./tcmalloc/libtcmalloc.a(libtcmalloc_internal_la-page_heap.o)
 .ctors         0x000000000068c738        0x8 ./tcmalloc/libtcmalloc.a(libtcmalloc_internal_la-sampler.o)
 .ctors         0x000000000068c740        0x8 ./tcmalloc/libtcmalloc.a(libtcmalloc_internal_la-static_vars.o)
 .ctors         0x000000000068c748        0x8 ./tcmalloc/libtcmalloc.a(libtcmalloc_internal_la-system-alloc.o)
 .ctors         0x000000000068c750        0x8 ./tcmalloc/libtcmalloc.a(libtcmalloc_internal_la-thread_cache.o)
 .ctors         0x000000000068c758        0x8 ./tcmalloc/libtcmalloc.a(logging.o)
 .ctors         0x000000000068c760        0x8 ./tcmalloc/libtcmalloc.a(spinlock.o)
 .ctors         0x000000000068c768        0x8 ./tcmalloc/libtcmalloc.a(spinlock_internal.o)
 .ctors         0x000000000068c770        0x8 ./tcmalloc/libtcmalloc.a(libtcmalloc_la-heap-checker.o)
 .ctors         0x000000000068c778        0x8 ./tcmalloc/libtcmalloc.a(libtcmalloc_la-heap-checker-bcad.o)
 .ctors         0x000000000068c780        0x8 ./tcmalloc/libtcmalloc.a(libtcmalloc_internal_la-heap-profile-table.o)
 .ctors         0x000000000068c788        0x8 ./tcmalloc/libtcmalloc.a(libtcmalloc_internal_la-memory_region_map.o)
 .ctors         0x000000000068c790        0x8 ./tcmalloc/libtcmalloc.a(libtcmalloc_internal_la-symbolize.o)
                0x000000000068c798                PROVIDE (__init_array_end, .)

.fini_array     0x000000000068c798        0x0
                0x000000000068c798                PROVIDE (__fini_array_start, .)
 *(SORT(.fini_array.*) SORT(.dtors.*))
 *(.fini_array)
 *(EXCLUDE_FILE(*crtend?.o *crtend.o *crtbegin?.o *crtbegin.o) .dtors)
                0x000000000068c798                PROVIDE (__fini_array_end, .)

.ctors          0x000000000068c798       0x10
 *crtbegin.o(.ctors)
 .ctors         0x000000000068c798        0x8 /usr/lib/gcc/x86_64-linux-gnu/4.6.1/crtbegin.o
 *crtbegin?.o(.ctors)
 *(EXCLUDE_FILE(*crtend?.o *crtend.o) .ctors)
 *(SORT(.ctors.*))
 *(.ctors)
 .ctors         0x000000000068c7a0        0x8 /usr/lib/gcc/x86_64-linux-gnu/4.6.1/crtend.o

.dtors          0x000000000068c7a8       0x10
 *crtbegin.o(.dtors)
 .dtors         0x000000000068c7a8        0x8 /usr/lib/gcc/x86_64-linux-gnu/4.6.1/crtbegin.o
 *crtbegin?.o(.dtors)
 *(EXCLUDE_FILE(*crtend?.o *crtend.o) .dtors)
 *(SORT(.dtors.*))
 *(.dtors)
 .dtors         0x000000000068c7b0        0x8 /usr/lib/gcc/x86_64-linux-gnu/4.6.1/crtend.o
                0x000000000068c7b0                __DTOR_END__

.jcr            0x000000000068c7b8        0x8
 *(.jcr)
 .jcr           0x000000000068c7b8        0x0 /usr/lib/gcc/x86_64-linux-gnu/4.6.1/crtbegin.o
 .jcr           0x000000000068c7b8        0x8 /usr/lib/gcc/x86_64-linux-gnu/4.6.1/crtend.o

.data.rel.ro    0x000000000068c7c0      0x2c8
 *(.data.rel.ro.local* .gnu.linkonce.d.rel.ro.local.*)
 *(.data.rel.ro* .gnu.linkonce.d.rel.ro.*)
 .data.rel.ro._ZTI12SysAllocator
                0x000000000068c7c0       0x10 ./tcmalloc/libtcmalloc.a(libtcmalloc_internal_la-malloc_extension.o)
                0x000000000068c7c0                _ZTI12SysAllocator
 .data.rel.ro._ZTI15MallocExtension
                0x000000000068c7d0       0x10 ./tcmalloc/libtcmalloc.a(libtcmalloc_internal_la-malloc_extension.o)
                0x000000000068c7d0                _ZTI15MallocExtension
 .data.rel.ro._ZTV12SysAllocator
                0x000000000068c7e0       0x28 ./tcmalloc/libtcmalloc.a(libtcmalloc_internal_la-malloc_extension.o)
                0x000000000068c7e0                _ZTV12SysAllocator
 *fill*         0x000000000068c808       0x18 00
 .data.rel.ro._ZTV15MallocExtension
                0x000000000068c820       0xe8 ./tcmalloc/libtcmalloc.a(libtcmalloc_internal_la-malloc_extension.o)
                0x000000000068c820                _ZTV15MallocExtension
 *fill*         0x000000000068c908        0x8 00
 .data.rel.ro._ZTI16SbrkSysAllocator
                0x000000000068c910       0x18 ./tcmalloc/libtcmalloc.a(libtcmalloc_internal_la-system-alloc.o)
                0x000000000068c910                _ZTI16SbrkSysAllocator
 *fill*         0x000000000068c928        0x8 00
 .data.rel.ro._ZTI16MmapSysAllocator
                0x000000000068c930       0x18 ./tcmalloc/libtcmalloc.a(libtcmalloc_internal_la-system-alloc.o)
                0x000000000068c930                _ZTI16MmapSysAllocator
 *fill*         0x000000000068c948        0x8 00
 .data.rel.ro._ZTI18DevMemSysAllocator
                0x000000000068c950       0x18 ./tcmalloc/libtcmalloc.a(libtcmalloc_internal_la-system-alloc.o)
                0x000000000068c950                _ZTI18DevMemSysAllocator
 *fill*         0x000000000068c968        0x8 00
 .data.rel.ro._ZTI19DefaultSysAllocator
                0x000000000068c970       0x18 ./tcmalloc/libtcmalloc.a(libtcmalloc_internal_la-system-alloc.o)
                0x000000000068c970                _ZTI19DefaultSysAllocator
 *fill*         0x000000000068c988       0x18 00
 .data.rel.ro._ZTV16SbrkSysAllocator
                0x000000000068c9a0       0x28 ./tcmalloc/libtcmalloc.a(libtcmalloc_internal_la-system-alloc.o)
                0x000000000068c9a0                _ZTV16SbrkSysAllocator
 *fill*         0x000000000068c9c8       0x18 00
 .data.rel.ro._ZTV16MmapSysAllocator
                0x000000000068c9e0       0x28 ./tcmalloc/libtcmalloc.a(libtcmalloc_internal_la-system-alloc.o)
                0x000000000068c9e0                _ZTV16MmapSysAllocator
 *fill*         0x000000000068ca08       0x18 00
 .data.rel.ro._ZTV18DevMemSysAllocator
                0x000000000068ca20       0x28 ./tcmalloc/libtcmalloc.a(libtcmalloc_internal_la-system-alloc.o)
                0x000000000068ca20                _ZTV18DevMemSysAllocator
 *fill*         0x000000000068ca48       0x18 00
 .data.rel.ro._ZTV19DefaultSysAllocator
                0x000000000068ca60       0x28 ./tcmalloc/libtcmalloc.a(libtcmalloc_internal_la-system-alloc.o)
                0x000000000068ca60                _ZTV19DefaultSysAllocator

.dynamic        0x000000000068ca88      0x250
 *(.dynamic)
 .dynamic       0x000000000068ca88      0x250 /usr/lib/gcc/x86_64-linux-gnu/4.6.1/../../../x86_64-linux-gnu/crt1.o
                0x000000000068ca88                _DYNAMIC

.got            0x000000000068ccd8      0x310
 *(.got)
 .got           0x000000000068ccd8      0x310 /usr/lib/gcc/x86_64-linux-gnu/4.6.1/../../../x86_64-linux-gnu/crt1.o
 *(.igot)
                0x000000000068cfe8                . = DATA_SEGMENT_RELRO_END (., 0x18)

.got.plt        0x000000000068cfe8      0x768
 *(.got.plt)
 .got.plt       0x000000000068cfe8      0x768 /usr/lib/gcc/x86_64-linux-gnu/4.6.1/../../../x86_64-linux-gnu/crt1.o
                0x000000000068cfe8                _GLOBAL_OFFSET_TABLE_
 *(.igot.plt)
 .igot.plt      0x0000000000000000        0x0 /usr/lib/gcc/x86_64-linux-gnu/4.6.1/../../../x86_64-linux-gnu/crt1.o

.data           0x000000000068d760      0x610
 *(.data .data.* .gnu.linkonce.d.*)
 .data          0x000000000068d760        0x4 /usr/lib/gcc/x86_64-linux-gnu/4.6.1/../../../x86_64-linux-gnu/crt1.o
                0x000000000068d760                data_start
                0x000000000068d760                __data_start
 .data          0x000000000068d764        0x0 /usr/lib/gcc/x86_64-linux-gnu/4.6.1/../../../x86_64-linux-gnu/crti.o
 *fill*         0x000000000068d764        0x4 00
 .data          0x000000000068d768        0x8 /usr/lib/gcc/x86_64-linux-gnu/4.6.1/crtbegin.o
                0x000000000068d768                __dso_handle
 .data          0x000000000068d770        0xc mpidriver.o
                0x000000000068d770                dtConvert
 .data          0x000000000068d77c        0x0 trace.o
 .data          0x000000000068d77c        0x0 novoalignCSMPI.a(novoalignMPI_main.o)
 .data          0x000000000068d77c        0x0 novoalignCSMPI.a(fragdist.o)
 .data          0x000000000068d77c        0x0 novoalignCSMPI.a(indelstats.o)
 .data          0x000000000068d77c        0x0 novoalignCSMPI.a(ksgroups.o)
 .data          0x000000000068d77c        0x0 novoalignCSMPI.a(ksindex.o)
 .data          0x000000000068d77c        0x0 novoalignCSMPI.a(novoalignmpi.o)
 .data          0x000000000068d77c        0x0 novoalignCSMPI.a(novolib.o)
 *fill*         0x000000000068d77c        0x4 00
 .data          0x000000000068d780       0x70 novoalignCSMPI.a(novoparam.o)
                0x000000000068d780                _ZN9novoparam10IQFOptionsE
                0x000000000068d7a0                rptformat
 .data          0x000000000068d7f0        0x0 novoalignCSMPI.a(posteriorP.o)
 .data          0x000000000068d7f0        0x0 novoalignCSMPI.a(prbcalibrateCS.o)
 .data          0x000000000068d7f0        0x0 novoalignCSMPI.a(prbcalibrateMPI.o)
 .data          0x000000000068d7f0        0x0 novoalignCSMPI.a(qualconvert.o)
 .data          0x000000000068d7f0        0x0 novoalignCSMPI.a(queryfolder.o)
 .data          0x000000000068d7f0        0x0 novoalignCSMPI.a(queryformatCS.o)
 .data          0x000000000068d7f0        0x0 novoalignCSMPI.a(queryreader.o)
 .data          0x000000000068d7f0        0x0 novoalignCSMPI.a(queryreaderCS.o)
 .data          0x000000000068d7f0        0x0 novoalignCSMPI.a(reporter.o)
 .data          0x000000000068d7f0        0x0 novoalignCSMPI.a(rptNative.o)
 .data          0x000000000068d7f0        0x0 novoalignCSMPI.a(rptSAM.o)
 .data          0x000000000068d7f0        0x0 novoalignCSMPI.a(TThread.o)
 .data          0x000000000068d7f0        0x0 novoalignCSMPI.a(TThreadPool.o)
 .data          0x000000000068d7f0        0x0 novoalignCSMPI.a(TTimer.o)
 .data          0x000000000068d7f0        0x0 novoalignCSMPI.a(wmsearch.o)
 .data          0x000000000068d7f0       0x15 novoalignCSMPI.a(linkdate.o)
                0x000000000068d7f0                linktime
                0x000000000068d7f9                linkdate
 *fill*         0x000000000068d805        0x3 00
 .data          0x000000000068d808        0x0 novoalignCSMPI.a(filehandle.o)
 .data          0x000000000068d808        0x0 novoalignCSMPI.a(findamateCS.o)
 .data          0x000000000068d808        0x0 novoalignCSMPI.a(fragdistMPI.o)
 .data          0x000000000068d808        0x0 novoalignCSMPI.a(iubcodes.o)
 .data          0x000000000068d808        0x0 novoalignCSMPI.a(keygenCS.o)
 *fill*         0x000000000068d808       0x18 00
 .data._ZZN7ksindex1fENS_5indexEjjE2mm
                0x000000000068d820       0x40 novoalignCSMPI.a(keygenCS.o)
                0x000000000068d820                _ZZN7ksindex1fENS_5indexEjjE2mm
 .data          0x000000000068d860      0x114 novoalignCSMPI.a(license.o)
 .data          0x000000000068d974        0x0 novoalignCSMPI.a(nawmCS.o)
 .data          0x000000000068d974        0x0 novoalignCSMPI.a(needleCS.o)
 .data          0x000000000068d974        0x0 novoalignCSMPI.a(qryopt.o)
 .data          0x000000000068d974        0x0 novoalignCSMPI.a(shortnwCS.o)
 *fill*         0x000000000068d974        0xc 00
 .data          0x000000000068d980      0x220 novoalignCSMPI.a(cscodes.o)
                0x000000000068d980                _ZN7cscodes4ap_lE
                0x000000000068d990                _ZN7cscodes2apE
                0x000000000068d9a0                _ZN7cscodes9tqsnp_m64E
 .data          0x000000000068dba0       0x20 ./tcmalloc/libtcmalloc.a(libtcmalloc_la-tcmalloc.o)
                0x000000000068dba0                __memalign_hook
                0x000000000068dba8                __free_hook
                0x000000000068dbb0                __realloc_hook
                0x000000000068dbb8                __malloc_hook
 .data._ZZN22TCMallocImplementation16GetFreeListSizesEPSt6vectorIN15MallocExtension12FreeListInfoESaIS2_EEE17kCentralCacheType
                0x000000000068dbc0        0x8 ./tcmalloc/libtcmalloc.a(libtcmalloc_la-tcmalloc.o)
                0x000000000068dbc0                _ZZN22TCMallocImplementation16GetFreeListSizesEPSt6vectorIN15MallocExtension12FreeListInfoESaIS2_EEE17kCentralCacheType
 .data._ZZN22TCMallocImplementation16GetFreeListSizesEPSt6vectorIN15MallocExtension12FreeListInfoESaIS2_EEE18kTransferCacheType
                0x000000000068dbc8        0x8 ./tcmalloc/libtcmalloc.a(libtcmalloc_la-tcmalloc.o)
                0x000000000068dbc8                _ZZN22TCMallocImplementation16GetFreeListSizesEPSt6vectorIN15MallocExtension12FreeListInfoESaIS2_EEE18kTransferCacheType
 .data._ZZN22TCMallocImplementation16GetFreeListSizesEPSt6vectorIN15MallocExtension12FreeListInfoESaIS2_EEE16kThreadCacheType
                0x000000000068dbd0        0x8 ./tcmalloc/libtcmalloc.a(libtcmalloc_la-tcmalloc.o)
                0x000000000068dbd0                _ZZN22TCMallocImplementation16GetFreeListSizesEPSt6vectorIN15MallocExtension12FreeListInfoESaIS2_EEE16kThreadCacheType
 .data._ZZN22TCMallocImplementation16GetFreeListSizesEPSt6vectorIN15MallocExtension12FreeListInfoESaIS2_EEE14kLargeSpanType
                0x000000000068dbd8        0x8 ./tcmalloc/libtcmalloc.a(libtcmalloc_la-tcmalloc.o)
                0x000000000068dbd8                _ZZN22TCMallocImplementation16GetFreeListSizesEPSt6vectorIN15MallocExtension12FreeListInfoESaIS2_EEE14kLargeSpanType
 .data._ZZN22TCMallocImplementation16GetFreeListSizesEPSt6vectorIN15MallocExtension12FreeListInfoESaIS2_EEE22kLargeUnmappedSpanType
                0x000000000068dbe0        0x8 ./tcmalloc/libtcmalloc.a(libtcmalloc_la-tcmalloc.o)
                0x000000000068dbe0                _ZZN22TCMallocImplementation16GetFreeListSizesEPSt6vectorIN15MallocExtension12FreeListInfoESaIS2_EEE22kLargeUnmappedSpanType
 .data._ZZN22TCMallocImplementation16GetFreeListSizesEPSt6vectorIN15MallocExtension12FreeListInfoESaIS2_EEE13kPageHeapType
                0x000000000068dbe8        0x8 ./tcmalloc/libtcmalloc.a(libtcmalloc_la-tcmalloc.o)
                0x000000000068dbe8                _ZZN22TCMallocImplementation16GetFreeListSizesEPSt6vectorIN15MallocExtension12FreeListInfoESaIS2_EEE13kPageHeapType
 .data._ZZN22TCMallocImplementation16GetFreeListSizesEPSt6vectorIN15MallocExtension12FreeListInfoESaIS2_EEE21kPageHeapUnmappedType
                0x000000000068dbf0        0x8 ./tcmalloc/libtcmalloc.a(libtcmalloc_la-tcmalloc.o)
                0x000000000068dbf0                _ZZN22TCMallocImplementation16GetFreeListSizesEPSt6vectorIN15MallocExtension12FreeListInfoESaIS2_EEE21kPageHeapUnmappedType
 .data          0x000000000068dbf8        0x0 ./tcmalloc/libtcmalloc.a(atomicops-internals-x86.o)
 .data          0x000000000068dbf8        0x4 ./tcmalloc/libtcmalloc.a(dynamic_annotations.o)
 .data          0x000000000068dbfc        0x0 ./tcmalloc/libtcmalloc.a(libtcmalloc_internal_la-central_freelist.o)
 .data          0x000000000068dbfc        0x0 ./tcmalloc/libtcmalloc.a(libtcmalloc_internal_la-common.o)
 .data          0x000000000068dbfc        0x0 ./tcmalloc/libtcmalloc.a(libtcmalloc_internal_la-internal_logging.o)
 *fill*         0x000000000068dbfc        0x4 00
 .data.rel.local
                0x000000000068dc00        0x8 ./tcmalloc/libtcmalloc.a(libtcmalloc_internal_la-internal_logging.o)
                0x000000000068dc00                _ZN8tcmalloc18log_message_writerE
 .data          0x000000000068dc08        0x0 ./tcmalloc/libtcmalloc.a(libtcmalloc_internal_la-malloc_extension.o)
 .data          0x000000000068dc08        0x0 ./tcmalloc/libtcmalloc.a(libtcmalloc_internal_la-malloc_hook.o)
 *fill*         0x000000000068dc08       0x18 00
 .data.rel.local
                0x000000000068dc20       0xc0 ./tcmalloc/libtcmalloc.a(libtcmalloc_internal_la-malloc_hook.o)
                0x000000000068dc20                _ZN4base8internal14presbrk_hooks_E
                0x000000000068dc60                _ZN4base8internal14premmap_hooks_E
                0x000000000068dca0                _ZN4base8internal10new_hooks_E
 .data          0x000000000068dce0        0x0 ./tcmalloc/libtcmalloc.a(libtcmalloc_internal_la-maybe_threads.o)
 .data          0x000000000068dce0        0x0 ./tcmalloc/libtcmalloc.a(libtcmalloc_internal_la-page_heap.o)
 .data          0x000000000068dce0        0x0 ./tcmalloc/libtcmalloc.a(libtcmalloc_internal_la-sampler.o)
 .data          0x000000000068dce0        0x0 ./tcmalloc/libtcmalloc.a(libtcmalloc_internal_la-span.o)
 .data          0x000000000068dce0        0x0 ./tcmalloc/libtcmalloc.a(libtcmalloc_internal_la-stack_trace_table.o)
 .data          0x000000000068dce0        0x0 ./tcmalloc/libtcmalloc.a(libtcmalloc_internal_la-static_vars.o)
 .data          0x000000000068dce0        0x0 ./tcmalloc/libtcmalloc.a(libtcmalloc_internal_la-system-alloc.o)
 .data          0x000000000068dce0       0x18 ./tcmalloc/libtcmalloc.a(libtcmalloc_internal_la-thread_cache.o)
                0x000000000068dce0                _ZN8tcmalloc11ThreadCache22unclaimed_cache_space_E
                0x000000000068dce8                _ZN8tcmalloc11ThreadCache26overall_thread_cache_size_E
                0x000000000068dcf0                _ZN8tcmalloc11ThreadCache22per_thread_cache_size_E
 .data          0x000000000068dcf8        0x0 ./tcmalloc/libtcmalloc.a(logging.o)
 .data          0x000000000068dcf8        0x0 ./tcmalloc/libtcmalloc.a(spinlock.o)
 .data          0x000000000068dcf8        0x4 ./tcmalloc/libtcmalloc.a(spinlock_internal.o)
 .data          0x000000000068dcfc        0x0 ./tcmalloc/libtcmalloc.a(stacktrace.o)
 *fill*         0x000000000068dcfc        0x4 00
 .data          0x000000000068dd00        0xc ./tcmalloc/libtcmalloc.a(sysinfo.o)
 *fill*         0x000000000068dd0c        0x4 00
 .data.DW.ref.__gxx_personality_v0
                0x000000000068dd10        0x8 ./tcmalloc/libtcmalloc.a(sysinfo.o)
                0x000000000068dd10                DW.ref.__gxx_personality_v0
 .data          0x000000000068dd18       0x18 ./tcmalloc/libtcmalloc.a(libtcmalloc_la-heap-checker.o)
                0x000000000068dd18                _ZN60FLAG__namespace_do_not_use_directly_use_DECLARE_bool_instead29FLAGS_heap_check_strict_checkE
                0x000000000068dd19                _ZN60FLAG__namespace_do_not_use_directly_use_DECLARE_bool_instead36FLAGS_heap_check_before_constructorsE
                0x000000000068dd1a                _ZN60FLAG__namespace_do_not_use_directly_use_DECLARE_bool_instead23FLAGS_heap_check_reportE
 .data          0x000000000068dd30        0x0 ./tcmalloc/libtcmalloc.a(libtcmalloc_la-heap-checker-bcad.o)
 .data          0x000000000068dd30        0x0 ./tcmalloc/libtcmalloc.a(libtcmalloc_internal_la-heap-profile-table.o)
 .data          0x000000000068dd30        0x4 ./tcmalloc/libtcmalloc.a(libtcmalloc_internal_la-low_level_alloc.o)
 .data          0x000000000068dd34        0x0 ./tcmalloc/libtcmalloc.a(libtcmalloc_internal_la-memory_region_map.o)
 .data          0x000000000068dd34        0x0 ./tcmalloc/libtcmalloc.a(libtcmalloc_internal_la-raw_printer.o)
 .data          0x000000000068dd34        0x0 ./tcmalloc/libtcmalloc.a(libtcmalloc_internal_la-symbolize.o)
 .data          0x000000000068dd34        0x0 ./tcmalloc/libtcmalloc.a(libtcmalloc_la-linuxthreads.o)
 .data          0x000000000068dd34        0x0 ./unwind/libunwind.a(backtrace.o)
 .data          0x000000000068dd34        0x0 ./unwind/libunwind.a(Lget_reg.o)
 .data          0x000000000068dd34        0x0 ./unwind/libunwind.a(Linit_local.o)
 .data          0x000000000068dd34        0x0 ./unwind/libunwind.a(Lregs.o)
 .data          0x000000000068dd34        0x0 ./unwind/libunwind.a(lt1-Lstep.o)
 .data          0x000000000068dd34        0x0 ./unwind/libunwind.a(getcontext.o)
 .data          0x000000000068dd34        0x0 ./unwind/libunwind.a(Lstep.o)
 *fill*         0x000000000068dd34        0xc 00
 .data          0x000000000068dd40       0x21 ./unwind/libunwind.a(Lglobal.o)
                0x000000000068dd40                _ULx86_64_needs_initialization
                0x000000000068dd50                _ULx86_64_dwarf_to_unw_regnum_map
 *fill*         0x000000000068dd61        0x7 00
 .data          0x000000000068dd68        0x8 ./unwind/libunwind.a(Linit.o)
                0x000000000068dd68                _ULx86_64_local_addr_space
 .data          0x000000000068dd70        0x0 ./unwind/libunwind.a(Lis_signal_frame.o)
 .data          0x000000000068dd70        0x0 ./unwind/libunwind.a(Lresume.o)
 .data          0x000000000068dd70        0x0 ./unwind/libunwind.a(init.o)
 .data          0x000000000068dd70        0x0 ./unwind/libunwind.a(flush_cache.o)
 .data          0x000000000068dd70        0x0 ./unwind/libunwind.a(global.o)
 .data          0x000000000068dd70        0x0 ./unwind/libunwind.a(elf64.o)
 .data          0x000000000068dd70        0x0 ./unwind/libunwind.a(is_fpreg.o)
 .data          0x000000000068dd70        0x0 ./unwind/libunwind.a(Lget_accessors.o)
 .data          0x000000000068dd70        0x0 ./unwind/libunwind.a(Lparser.o)
 .data          0x000000000068dd70        0x0 ./unwind/libunwind.a(Lpe.o)
 .data          0x000000000068dd70        0x0 ./unwind/libunwind.a(Lfind_proc_info-lsb.o)
 .data          0x000000000068dd70        0x0 ./unwind/libunwind.a(setcontext.o)
 .data          0x000000000068dd70        0x0 ./unwind/libunwind.a(os-linux.o)
 .data          0x000000000068dd70        0x0 ./unwind/libunwind.a(mempool.o)
 .data          0x000000000068dd70        0x0 ./unwind/libunwind.a(Lfind_dynamic_proc_info.o)
 .data          0x000000000068dd70        0x0 ./unwind/libunwind.a(Lput_dynamic_unwind_info.o)
 .data          0x000000000068dd70        0x0 ./unwind/libunwind.a(Lexpr.o)
 .data          0x000000000068dd70        0x0 ./unwind/libunwind.a(Lfde.o)
 .data          0x000000000068dd70        0x0 ./unwind/libunwind.a(dyn-info-list.o)
 .data          0x000000000068dd70        0x0 ./unwind/libunwind.a(Ldyn-extract.o)
 .data          0x000000000068dd70        0x0 /usr/lib/x86_64-linux-gnu/libpthread_nonshared.a(pthread_atfork.oS)
 .data          0x000000000068dd70        0x0 /usr/lib/x86_64-linux-gnu/libc_nonshared.a(elf-init.oS)
 .data          0x000000000068dd70        0x0 /usr/lib/gcc/x86_64-linux-gnu/4.6.1/crtend.o
 .data          0x000000000068dd70        0x0 /usr/lib/gcc/x86_64-linux-gnu/4.6.1/../../../x86_64-linux-gnu/crtn.o

.data1
 *(.data1)
                0x000000000068dd70                _edata = .
                0x000000000068dd70                PROVIDE (edata, .)
                0x000000000068dd70                __bss_start = .

.bss            0x000000000068dd80    0x3bca8
 *(.dynbss)
 .dynbss        0x000000000068dd80      0x2f0 /usr/lib/gcc/x86_64-linux-gnu/4.6.1/../../../x86_64-linux-gnu/crt1.o
                0x000000000068dd80                __progname_full@@GLIBC_2.2.5
                0x000000000068dd80                program_invocation_name@@GLIBC_2.2.5
                0x000000000068dd90                stdout@@GLIBC_2.2.5
                0x000000000068dda0                _ZNSs4_Rep20_S_empty_rep_storageE@@GLIBCXX_3.4
                0x000000000068ddc0                _ZTVN10__cxxabiv117__class_type_infoE@@CXXABI_1.3
                0x000000000068de18                stdin@@GLIBC_2.2.5
                0x000000000068de20                __progname@@GLIBC_2.2.5
                0x000000000068de20                program_invocation_short_name@@GLIBC_2.2.5
                0x000000000068de40                _ZTVSt9bad_alloc@@GLIBCXX_3.4
                0x000000000068de80                _ZTISt9bad_alloc@@GLIBCXX_3.4
                0x000000000068dea0                _ZTVN10__cxxabiv120__si_class_type_infoE@@CXXABI_1.3
                0x000000000068def8                stderr@@GLIBC_2.2.5
                0x000000000068df00                _ZTVN10__cxxabiv121__vmi_class_type_infoE@@CXXABI_1.3
                0x000000000068df60                _ZSt4cerr@@GLIBCXX_3.4
 *(.bss .bss.* .gnu.linkonce.b.*)
 .bss           0x000000000068e070        0x0 /usr/lib/gcc/x86_64-linux-gnu/4.6.1/../../../x86_64-linux-gnu/crt1.o
 .bss           0x000000000068e070        0x0 /usr/lib/gcc/x86_64-linux-gnu/4.6.1/../../../x86_64-linux-gnu/crti.o
 .bss           0x000000000068e070       0x10 /usr/lib/gcc/x86_64-linux-gnu/4.6.1/crtbegin.o
 .bss           0x000000000068e080       0x14 mpidriver.o
 .bss           0x000000000068e094        0x0 trace.o
 *fill*         0x000000000068e094        0xc 00
 .bss           0x000000000068e0a0       0x71 novoalignCSMPI.a(novoalignMPI_main.o)
                0x000000000068e0a0                rptgate
                0x000000000068e0e0                readgate
 *fill*         0x000000000068e111        0x3 00
 .bss           0x000000000068e114        0x1 novoalignCSMPI.a(fragdist.o)
 *fill*         0x000000000068e115        0x3 00
 .bss           0x000000000068e118        0x1 novoalignCSMPI.a(indelstats.o)
 *fill*         0x000000000068e119        0x3 00
 .bss           0x000000000068e11c        0x0 novoalignCSMPI.a(ksgroups.o)
 .bss           0x000000000068e11c        0x1 novoalignCSMPI.a(ksindex.o)
 *fill*         0x000000000068e11d        0x3 00
 .bss           0x000000000068e120        0x1 novoalignCSMPI.a(novoalignmpi.o)
 *fill*         0x000000000068e121        0x3 00
 .bss           0x000000000068e124        0x0 novoalignCSMPI.a(novolib.o)
 .bss           0x000000000068e124        0x1 novoalignCSMPI.a(novoparam.o)
 *fill*         0x000000000068e125       0x1b 00
 .bss           0x000000000068e140     0x1018 novoalignCSMPI.a(posteriorP.o)
                0x000000000068e140                _ZN10posteriorP11initialisedE
                0x000000000068e160                _ZN10posteriorP4PRAiE
 .bss           0x000000000068f158        0x1 novoalignCSMPI.a(prbcalibrateCS.o)
 *fill*         0x000000000068f159        0x3 00
 .bss           0x000000000068f15c        0x1 novoalignCSMPI.a(prbcalibrateMPI.o)
 *fill*         0x000000000068f15d        0x3 00
 .bss           0x000000000068f160     0x4184 novoalignCSMPI.a(qualconvert.o)
                0x000000000068f160                qcnv
                0x000000000068f5c0                _ZN11qualconvert9notslx3scE
                0x000000000068f7c0                _ZN11qualconvert5notscE
                0x000000000068f840                _ZN11qualconvert11notphred3scE
                0x000000000068f8c0                _ZN11qualconvert4aorbE
 .bss           0x00000000006932e4        0x1 novoalignCSMPI.a(queryfolder.o)
 *fill*         0x00000000006932e5        0x3 00
 .bss           0x00000000006932e8        0x1 novoalignCSMPI.a(queryformatCS.o)
 *fill*         0x00000000006932e9        0x3 00
 .bss           0x00000000006932ec        0x1 novoalignCSMPI.a(queryreader.o)
 *fill*         0x00000000006932ed        0x3 00
 .bss           0x00000000006932f0        0x1 novoalignCSMPI.a(queryreaderCS.o)
 *fill*         0x00000000006932f1        0x3 00
 .bss           0x00000000006932f4        0x1 novoalignCSMPI.a(reporter.o)
 *fill*         0x00000000006932f5        0x3 00
 .bss           0x00000000006932f8        0x1 novoalignCSMPI.a(rptNative.o)
 *fill*         0x00000000006932f9        0x3 00
 .bss           0x00000000006932fc        0x1 novoalignCSMPI.a(rptSAM.o)
 *fill*         0x00000000006932fd        0x3 00
 .bss           0x0000000000693300        0x1 novoalignCSMPI.a(TThread.o)
 *fill*         0x0000000000693301        0xf 00
 .bss           0x0000000000693310        0x9 novoalignCSMPI.a(TThreadPool.o)
                0x0000000000693310                thread_pool
 *fill*         0x0000000000693319        0x3 00
 .bss           0x000000000069331c        0x1 novoalignCSMPI.a(TTimer.o)
 *fill*         0x000000000069331d        0x3 00
 .bss           0x0000000000693320        0x1 novoalignCSMPI.a(wmsearch.o)
 *fill*         0x0000000000693321        0x3 00
 .bss           0x0000000000693324        0x0 novoalignCSMPI.a(linkdate.o)
 .bss           0x0000000000693324        0x1 novoalignCSMPI.a(filehandle.o)
 *fill*         0x0000000000693325        0x3 00
 .bss           0x0000000000693328        0x1 novoalignCSMPI.a(findamateCS.o)
 *fill*         0x0000000000693329        0x3 00
 .bss           0x000000000069332c        0x1 novoalignCSMPI.a(fragdistMPI.o)
 *fill*         0x000000000069332d       0x13 00
 .bss           0x0000000000693340      0x420 novoalignCSMPI.a(iubcodes.o)
                0x0000000000693340                iub
                0x0000000000693360                asciitoiub
 .bss           0x0000000000693760        0x1 novoalignCSMPI.a(keygenCS.o)
 *fill*         0x0000000000693761        0x3 00
 .bss           0x0000000000693764        0x0 novoalignCSMPI.a(license.o)
 .bss           0x0000000000693764        0x1 novoalignCSMPI.a(nawmCS.o)
 *fill*         0x0000000000693765        0x3 00
 .bss           0x0000000000693768        0x1 novoalignCSMPI.a(needleCS.o)
 *fill*         0x0000000000693769        0x3 00
 .bss           0x000000000069376c        0x1 novoalignCSMPI.a(qryopt.o)
 *fill*         0x000000000069376d        0x3 00
 .bss           0x0000000000693770        0x1 novoalignCSMPI.a(shortnwCS.o)
 *fill*         0x0000000000693771        0x3 00
 .bss           0x0000000000693774        0x1 novoalignCSMPI.a(cscodes.o)
                0x0000000000693774                cscode
 *fill*         0x0000000000693775        0xb 00
 .bss           0x0000000000693780      0x239 ./tcmalloc/libtcmalloc.a(libtcmalloc_la-tcmalloc.o)
                0x0000000000693780                _ZN61FLAG__namespace_do_not_use_directly_use_DECLARE_int64_instead45FLAGS_notcmalloc_large_alloc_report_thresholdE
                0x0000000000693788                _ZN61FLAG__namespace_do_not_use_directly_use_DECLARE_int64_instead43FLAGS_tcmalloc_large_alloc_report_thresholdE
 *fill*         0x00000000006939b9        0x7 00
 .bss           0x00000000006939c0       0x20 ./tcmalloc/libtcmalloc.a(atomicops-internals-x86.o)
                0x00000000006939c0                AtomicOps_Internalx86CPUFeatures
 .bss           0x00000000006939e0        0x8 ./tcmalloc/libtcmalloc.a(dynamic_annotations.o)
 .bss           0x00000000006939e8        0x4 ./tcmalloc/libtcmalloc.a(libtcmalloc_internal_la-central_freelist.o)
 *fill*         0x00000000006939ec        0x4 00
 .bss           0x00000000006939f0       0x28 ./tcmalloc/libtcmalloc.a(libtcmalloc_internal_la-common.o)
 *fill*         0x0000000000693a18        0x8 00
 .bss           0x0000000000693a20     0x4020 ./tcmalloc/libtcmalloc.a(libtcmalloc_internal_la-internal_logging.o)
 .bss           0x0000000000697a40       0x10 ./tcmalloc/libtcmalloc.a(libtcmalloc_internal_la-malloc_extension.o)
 *fill*         0x0000000000697a50       0x10 00
 .bss           0x0000000000697a60      0x209 ./tcmalloc/libtcmalloc.a(libtcmalloc_internal_la-malloc_hook.o)
                0x0000000000697a60                _ZN4base8internal19munmap_replacement_E
                0x0000000000697aa0                _ZN4base8internal17mmap_replacement_E
                0x0000000000697ae0                _ZN4base8internal11sbrk_hooks_E
                0x0000000000697b20                _ZN4base8internal13mremap_hooks_E
                0x0000000000697b60                _ZN4base8internal13munmap_hooks_E
                0x0000000000697ba0                _ZN4base8internal11mmap_hooks_E
                0x0000000000697be0                _ZN4base8internal13delete_hooks_E
                0x0000000000697c20                _ZN4base8internal10sbrk_hook_E
                0x0000000000697c28                _ZN4base8internal13presbrk_hook_E
                0x0000000000697c30                _ZN4base8internal12mremap_hook_E
                0x0000000000697c38                _ZN4base8internal12munmap_hook_E
                0x0000000000697c40                _ZN4base8internal10mmap_hook_E
                0x0000000000697c48                _ZN4base8internal13premmap_hook_E
                0x0000000000697c50                _ZN4base8internal12delete_hook_E
                0x0000000000697c58                _ZN4base8internal9new_hook_E
 *fill*         0x0000000000697c69       0x17 00
 .bss           0x0000000000697c80       0xa4 ./tcmalloc/libtcmalloc.a(libtcmalloc_internal_la-maybe_threads.o)
 *fill*         0x0000000000697d24        0x4 00
 .bss           0x0000000000697d28       0x20 ./tcmalloc/libtcmalloc.a(libtcmalloc_internal_la-page_heap.o)
                0x0000000000697d28                _ZN61FLAG__namespace_do_not_use_directly_use_DECLARE_int64_instead30FLAGS_notcmalloc_heap_limit_mbE
                0x0000000000697d30                _ZN61FLAG__namespace_do_not_use_directly_use_DECLARE_int64_instead28FLAGS_tcmalloc_heap_limit_mbE
                0x0000000000697d38                _ZN62FLAG__namespace_do_not_use_directly_use_DECLARE_double_instead29FLAGS_notcmalloc_release_rateE
                0x0000000000697d40                _ZN62FLAG__namespace_do_not_use_directly_use_DECLARE_double_instead27FLAGS_tcmalloc_release_rateE
 *fill*         0x0000000000697d48       0x18 00
 .bss           0x0000000000697d60     0x2010 ./tcmalloc/libtcmalloc.a(libtcmalloc_internal_la-sampler.o)
                0x0000000000697d60                _ZN8tcmalloc7Sampler10log_table_E
                0x0000000000699d60                _ZN61FLAG__namespace_do_not_use_directly_use_DECLARE_int64_instead33FLAGS_notcmalloc_sample_parameterE
                0x0000000000699d68                _ZN61FLAG__namespace_do_not_use_directly_use_DECLARE_int64_instead31FLAGS_tcmalloc_sample_parameterE
 .bss           0x0000000000699d70        0x0 ./tcmalloc/libtcmalloc.a(libtcmalloc_internal_la-span.o)
 .bss           0x0000000000699d70        0x0 ./tcmalloc/libtcmalloc.a(libtcmalloc_internal_la-stack_trace_table.o)
 *fill*         0x0000000000699d70       0x10 00
 .bss           0x0000000000699d80    0x1b240 ./tcmalloc/libtcmalloc.a(libtcmalloc_internal_la-static_vars.o)
                0x0000000000699d80                _ZN8tcmalloc6Static9pageheap_E
                0x0000000000699d88                _ZN8tcmalloc6Static14growth_stacks_E
                0x0000000000699da0                _ZN8tcmalloc6Static17bucket_allocator_E
                0x0000000000699dc0                _ZN8tcmalloc6Static16sampled_objects_E
                0x0000000000699e00                _ZN8tcmalloc6Static21stacktrace_allocator_E
                0x0000000000699e20                _ZN8tcmalloc6Static15span_allocator_E
                0x0000000000699e40                _ZN8tcmalloc6Static14central_cache_E
                0x00000000006b4040                _ZN8tcmalloc6Static8sizemap_E
                0x00000000006b4fa0                _ZN8tcmalloc6Static14pageheap_lock_E
 .bss           0x00000000006b4fc0       0x95 ./tcmalloc/libtcmalloc.a(libtcmalloc_internal_la-system-alloc.o)
                0x00000000006b4fc0                _ZN60FLAG__namespace_do_not_use_directly_use_DECLARE_bool_instead37FLAGS_nomalloc_disable_memory_releaseE
                0x00000000006b4fc1                _ZN60FLAG__namespace_do_not_use_directly_use_DECLARE_bool_instead35FLAGS_malloc_disable_memory_releaseE
                0x00000000006b4fc2                _ZN60FLAG__namespace_do_not_use_directly_use_DECLARE_bool_instead24FLAGS_nomalloc_skip_mmapE
                0x00000000006b4fc3                _ZN60FLAG__namespace_do_not_use_directly_use_DECLARE_bool_instead22FLAGS_malloc_skip_mmapE
                0x00000000006b4fc4                _ZN60FLAG__namespace_do_not_use_directly_use_DECLARE_bool_instead24FLAGS_nomalloc_skip_sbrkE
                0x00000000006b4fc5                _ZN60FLAG__namespace_do_not_use_directly_use_DECLARE_bool_instead22FLAGS_malloc_skip_sbrkE
                0x00000000006b4fc6                _ZN61FLAG__namespace_do_not_use_directly_use_DECLARE_int32_instead27FLAGS_nomalloc_devmem_limitE
                0x00000000006b4fc8                _ZN61FLAG__namespace_do_not_use_directly_use_DECLARE_int32_instead25FLAGS_malloc_devmem_limitE
                0x00000000006b4fcc                _ZN61FLAG__namespace_do_not_use_directly_use_DECLARE_int32_instead27FLAGS_nomalloc_devmem_startE
                0x00000000006b4fd0                _ZN61FLAG__namespace_do_not_use_directly_use_DECLARE_int32_instead25FLAGS_malloc_devmem_startE
                0x00000000006b4fd8                TCMalloc_SystemTaken
                0x00000000006b4fe0                sys_alloc
 *fill*         0x00000000006b5055        0xb 00
 .bss           0x00000000006b5060       0x71 ./tcmalloc/libtcmalloc.a(libtcmalloc_internal_la-thread_cache.o)
                0x00000000006b5060                _ZN8tcmalloc19kernel_supports_tlsE
                0x00000000006b5064                _ZN8tcmalloc11ThreadCache9heap_key_E
                0x00000000006b5068                _ZN8tcmalloc11ThreadCache11tsd_inited_E
                0x00000000006b5070                _ZN8tcmalloc11ThreadCache18next_memory_steal_E
                0x00000000006b5078                _ZN8tcmalloc11ThreadCache18thread_heap_count_E
                0x00000000006b5080                _ZN8tcmalloc11ThreadCache13thread_heaps_E
                0x00000000006b50a0                _ZN8tcmalloc21threadcache_allocatorE
                0x00000000006b50c0                _ZN61FLAG__namespace_do_not_use_directly_use_DECLARE_int64_instead45FLAGS_notcmalloc_max_total_thread_cache_bytesE
                0x00000000006b50c8                _ZN61FLAG__namespace_do_not_use_directly_use_DECLARE_int64_instead43FLAGS_tcmalloc_max_total_thread_cache_bytesE
 *fill*         0x00000000006b50d1        0x3 00
 .bss           0x00000000006b50d4        0x8 ./tcmalloc/libtcmalloc.a(logging.o)
                0x00000000006b50d4                _ZN61FLAG__namespace_do_not_use_directly_use_DECLARE_int32_instead15FLAGS_noverboseE
                0x00000000006b50d8                _ZN61FLAG__namespace_do_not_use_directly_use_DECLARE_int32_instead13FLAGS_verboseE
 .bss           0x00000000006b50dc        0x4 ./tcmalloc/libtcmalloc.a(spinlock.o)
 .bss           0x00000000006b50e0       0x10 ./tcmalloc/libtcmalloc.a(spinlock_internal.o)
 .bss           0x00000000006b50f0        0x0 ./tcmalloc/libtcmalloc.a(stacktrace.o)
 *fill*         0x00000000006b50f0       0x10 00
 .bss           0x00000000006b5100     0x4001 ./tcmalloc/libtcmalloc.a(sysinfo.o)
 *fill*         0x00000000006b9101        0xf 00
 .bss           0x00000000006b9110      0x160 ./tcmalloc/libtcmalloc.a(libtcmalloc_la-heap-checker.o)
                0x00000000006b9110                _ZN11HeapCleaner14heap_cleanups_E
                0x00000000006b9118                _ZN15HeapLeakChecker9Allocator12alloc_count_E
                0x00000000006b9120                _ZN15HeapLeakChecker9Allocator6arena_E
                0x00000000006b9128                _ZN62FLAG__namespace_do_not_use_directly_use_DECLARE_string_instead33FLAGS_noheap_check_dump_directoryE
                0x00000000006b9130                _ZN62FLAG__namespace_do_not_use_directly_use_DECLARE_string_instead31FLAGS_heap_check_dump_directoryE
                0x00000000006b9138                _ZN62FLAG__namespace_do_not_use_directly_use_DECLARE_string_instead26FLAGS_noheap_profile_pprofE
                0x00000000006b9140                _ZN62FLAG__namespace_do_not_use_directly_use_DECLARE_string_instead24FLAGS_heap_profile_pprofE
                0x00000000006b9148                _ZN61FLAG__namespace_do_not_use_directly_use_DECLARE_int32_instead32FLAGS_noheap_check_delay_secondsE
                0x00000000006b914c                _ZN61FLAG__namespace_do_not_use_directly_use_DECLARE_int32_instead30FLAGS_heap_check_delay_secondsE
                0x00000000006b9150                _ZN60FLAG__namespace_do_not_use_directly_use_DECLARE_bool_instead32FLAGS_noheap_check_run_under_gdbE
                0x00000000006b9151                _ZN60FLAG__namespace_do_not_use_directly_use_DECLARE_bool_instead30FLAGS_heap_check_run_under_gdbE
                0x00000000006b9152                _ZN61FLAG__namespace_do_not_use_directly_use_DECLARE_int64_instead37FLAGS_noheap_check_max_pointer_offsetE
                0x00000000006b9158                _ZN61FLAG__namespace_do_not_use_directly_use_DECLARE_int64_instead35FLAGS_heap_check_max_pointer_offsetE
                0x00000000006b9160                _ZN61FLAG__namespace_do_not_use_directly_use_DECLARE_int32_instead43FLAGS_noheap_check_pointer_source_alignmentE
                0x00000000006b9164                _ZN61FLAG__namespace_do_not_use_directly_use_DECLARE_int32_instead41FLAGS_heap_check_pointer_source_alignmentE
                0x00000000006b9168                _ZN60FLAG__namespace_do_not_use_directly_use_DECLARE_bool_instead41FLAGS_noheap_check_test_pointer_alignmentE
                0x00000000006b9169                _ZN60FLAG__namespace_do_not_use_directly_use_DECLARE_bool_instead39FLAGS_heap_check_test_pointer_alignmentE
                0x00000000006b916a                _ZN60FLAG__namespace_do_not_use_directly_use_DECLARE_bool_instead37FLAGS_noheap_check_ignore_thread_liveE
                0x00000000006b916b                _ZN60FLAG__namespace_do_not_use_directly_use_DECLARE_bool_instead35FLAGS_heap_check_ignore_thread_liveE
                0x00000000006b916c                _ZN60FLAG__namespace_do_not_use_directly_use_DECLARE_bool_instead33FLAGS_noheap_check_identify_leaksE
                0x00000000006b916d                _ZN60FLAG__namespace_do_not_use_directly_use_DECLARE_bool_instead31FLAGS_heap_check_identify_leaksE
                0x00000000006b916e                _ZN60FLAG__namespace_do_not_use_directly_use_DECLARE_bool_instead37FLAGS_noheap_check_ignore_global_liveE
                0x00000000006b916f                _ZN60FLAG__namespace_do_not_use_directly_use_DECLARE_bool_instead35FLAGS_heap_check_ignore_global_liveE
                0x00000000006b9170                _ZN60FLAG__namespace_do_not_use_directly_use_DECLARE_bool_instead31FLAGS_noheap_check_strict_checkE
                0x00000000006b9171                _ZN60FLAG__namespace_do_not_use_directly_use_DECLARE_bool_instead36FLAGS_noheap_check_after_destructorsE
                0x00000000006b9172                _ZN60FLAG__namespace_do_not_use_directly_use_DECLARE_bool_instead34FLAGS_heap_check_after_destructorsE
                0x00000000006b9173                _ZN60FLAG__namespace_do_not_use_directly_use_DECLARE_bool_instead38FLAGS_noheap_check_before_constructorsE
                0x00000000006b9174                _ZN60FLAG__namespace_do_not_use_directly_use_DECLARE_bool_instead25FLAGS_noheap_check_reportE
                0x00000000006b9175                _ZN62FLAG__namespace_do_not_use_directly_use_DECLARE_string_instead18FLAGS_noheap_checkE
                0x00000000006b9178                _ZN62FLAG__namespace_do_not_use_directly_use_DECLARE_string_instead16FLAGS_heap_checkE
 *fill*         0x00000000006b9270       0x10 00
 .bss._ZNSbIcSt11char_traitsIcE13STL_AllocatorIcN15HeapLeakChecker9AllocatorEEE4_Rep20_S_empty_rep_storageE
                0x00000000006b9280       0x20 ./tcmalloc/libtcmalloc.a(libtcmalloc_la-heap-checker.o)
                0x00000000006b9280                _ZNSbIcSt11char_traitsIcE13STL_AllocatorIcN15HeapLeakChecker9AllocatorEEE4_Rep20_S_empty_rep_storageE
 .bss           0x00000000006b92a0        0x6 ./tcmalloc/libtcmalloc.a(libtcmalloc_la-heap-checker-bcad.o)
                0x00000000006b92a0                _ZN28HeapLeakCheckerGlobalPrePost6count_E
                0x00000000006b92a4                heap_leak_checker_bcad_variable
 *fill*         0x00000000006b92a6        0x2 00
 .bss           0x00000000006b92a8        0xa ./tcmalloc/libtcmalloc.a(libtcmalloc_internal_la-heap-profile-table.o)
                0x00000000006b92a8                _ZN61FLAG__namespace_do_not_use_directly_use_DECLARE_int32_instead28FLAGS_noheap_check_max_leaksE
                0x00000000006b92ac                _ZN61FLAG__namespace_do_not_use_directly_use_DECLARE_int32_instead26FLAGS_heap_check_max_leaksE
                0x00000000006b92b0                _ZN60FLAG__namespace_do_not_use_directly_use_DECLARE_bool_instead33FLAGS_nocleanup_old_heap_profilesE
                0x00000000006b92b1                _ZN60FLAG__namespace_do_not_use_directly_use_DECLARE_bool_instead31FLAGS_cleanup_old_heap_profilesE
 *fill*         0x00000000006b92b2        0xe 00
 .bss           0x00000000006b92c0      0x3c0 ./tcmalloc/libtcmalloc.a(libtcmalloc_internal_la-low_level_alloc.o)
 .bss           0x00000000006b9680     0x1712 ./tcmalloc/libtcmalloc.a(libtcmalloc_internal_la-memory_region_map.o)
                0x00000000006b9680                _ZN15MemoryRegionMap11unmap_size_E
                0x00000000006b9688                _ZN15MemoryRegionMap9map_size_E
                0x00000000006b9690                _ZN15MemoryRegionMap15lock_owner_tid_E
                0x00000000006b9698                _ZN15MemoryRegionMap16recursion_count_E
                0x00000000006b969c                _ZN15MemoryRegionMap11owner_lock_E
                0x00000000006b96a0                _ZN15MemoryRegionMap5lock_E
                0x00000000006b96a8                _ZN15MemoryRegionMap6arena_E
                0x00000000006b96b0                _ZN15MemoryRegionMap8regions_E
                0x00000000006b96b8                _ZN15MemoryRegionMap16max_stack_depth_E
                0x00000000006b96bc                _ZN15MemoryRegionMap13client_count_E
 *fill*         0x00000000006bad92        0x2 00
 .bss           0x00000000006bad94        0x0 ./tcmalloc/libtcmalloc.a(libtcmalloc_internal_la-raw_printer.o)
 *fill*         0x00000000006bad94        0x4 00
 .bss           0x00000000006bad98       0x18 ./tcmalloc/libtcmalloc.a(libtcmalloc_internal_la-symbolize.o)
                0x00000000006bad98                _ZN62FLAG__namespace_do_not_use_directly_use_DECLARE_string_instead23FLAGS_nosymbolize_pprofE
                0x00000000006bada0                _ZN62FLAG__namespace_do_not_use_directly_use_DECLARE_string_instead21FLAGS_symbolize_pprofE
 .bss           0x00000000006badb0       0x18 ./tcmalloc/libtcmalloc.a(libtcmalloc_la-linuxthreads.o)
 .bss           0x00000000006badc8        0x0 ./unwind/libunwind.a(backtrace.o)
 .bss           0x00000000006badc8        0x0 ./unwind/libunwind.a(Lget_reg.o)
 .bss           0x00000000006badc8        0x0 ./unwind/libunwind.a(Linit_local.o)
 .bss           0x00000000006badc8        0x0 ./unwind/libunwind.a(Lregs.o)
 .bss           0x00000000006badc8        0x0 ./unwind/libunwind.a(lt1-Lstep.o)
 .bss           0x00000000006badc8        0x0 ./unwind/libunwind.a(getcontext.o)
 .bss           0x00000000006badc8        0x0 ./unwind/libunwind.a(Lstep.o)
 *fill*         0x00000000006badc8       0x18 00
 .bss           0x00000000006bade0       0x28 ./unwind/libunwind.a(Lglobal.o)
                0x00000000006bade0                _ULx86_64_lock
 *fill*         0x00000000006bae08       0x18 00
 .bss           0x00000000006bae20     0xaaa4 ./unwind/libunwind.a(Linit.o)
 .bss           0x00000000006c58c4        0x0 ./unwind/libunwind.a(Lis_signal_frame.o)
 .bss           0x00000000006c58c4        0x0 ./unwind/libunwind.a(Lresume.o)
 .bss           0x00000000006c58c4        0x0 ./unwind/libunwind.a(init.o)
 .bss           0x00000000006c58c4        0x0 ./unwind/libunwind.a(flush_cache.o)
 .bss           0x00000000006c58c4        0x0 ./unwind/libunwind.a(global.o)
 .bss           0x00000000006c58c4        0x0 ./unwind/libunwind.a(elf64.o)
 .bss           0x00000000006c58c4        0x0 ./unwind/libunwind.a(is_fpreg.o)
 .bss           0x00000000006c58c4        0x0 ./unwind/libunwind.a(Lget_accessors.o)
 .bss           0x00000000006c58c4        0x0 ./unwind/libunwind.a(Lparser.o)
 .bss           0x00000000006c58c4        0x0 ./unwind/libunwind.a(Lpe.o)
 .bss           0x00000000006c58c4        0x0 ./unwind/libunwind.a(Lfind_proc_info-lsb.o)
 .bss           0x00000000006c58c4        0x0 ./unwind/libunwind.a(setcontext.o)
 .bss           0x00000000006c58c4        0x0 ./unwind/libunwind.a(os-linux.o)
 *fill*         0x00000000006c58c4       0x1c 00
 .bss           0x00000000006c58e0     0x4010 ./unwind/libunwind.a(mempool.o)
 .bss           0x00000000006c98f0        0x0 ./unwind/libunwind.a(Lfind_dynamic_proc_info.o)
 .bss           0x00000000006c98f0        0x0 ./unwind/libunwind.a(Lput_dynamic_unwind_info.o)
 .bss           0x00000000006c98f0        0x0 ./unwind/libunwind.a(Lexpr.o)
 .bss           0x00000000006c98f0        0x0 ./unwind/libunwind.a(Lfde.o)
 .bss           0x00000000006c98f0        0x0 ./unwind/libunwind.a(dyn-info-list.o)
 .bss           0x00000000006c98f0        0x0 ./unwind/libunwind.a(Ldyn-extract.o)
 .bss           0x00000000006c98f0        0x0 /usr/lib/x86_64-linux-gnu/libpthread_nonshared.a(pthread_atfork.oS)
 .bss           0x00000000006c98f0        0x0 /usr/lib/x86_64-linux-gnu/libc_nonshared.a(elf-init.oS)
 .bss           0x00000000006c98f0        0x0 /usr/lib/gcc/x86_64-linux-gnu/4.6.1/crtend.o
 .bss           0x00000000006c98f0        0x0 /usr/lib/gcc/x86_64-linux-gnu/4.6.1/../../../x86_64-linux-gnu/crtn.o
 *(COMMON)
 COMMON         0x00000000006c98f0       0x10 ./unwind/libunwind.a(Linit.o)
                0x00000000006c98f0                _U_dyn_info_list
 COMMON         0x00000000006c9900       0x80 ./unwind/libunwind.a(init.o)
                0x00000000006c9900                _UIx86_64_full_mask
 COMMON         0x00000000006c9980       0xa8 ./unwind/libunwind.a(global.o)
                0x00000000006c9980                dwarf_reg_state_pool
                0x00000000006c99e0                dwarf_cie_info_pool
                0x00000000006c9a28                . = ALIGN ((. != 0x0)?0x8:0x1)

.lbss
 *(.dynlbss)
 *(.lbss .lbss.* .gnu.linkonce.lb.*)
 *(LARGE_COMMON)
                0x00000000006c9a28                . = ALIGN (0x8)

.lrodata
 *(.lrodata .lrodata.* .gnu.linkonce.lr.*)

.ldata          0x0000000000ac9a28        0x0
 *(.ldata .ldata.* .gnu.linkonce.l.*)
                0x0000000000ac9a28                . = ALIGN ((. != 0x0)?0x8:0x1)
                0x0000000000ac9a28                . = ALIGN (0x8)
                0x0000000000ac9a28                _end = .
                0x0000000000ac9a28                PROVIDE (end, .)
                0x0000000000ac9a28                . = DATA_SEGMENT_END (.)

.stab
 *(.stab)

.stabstr
 *(.stabstr)

.stab.excl
 *(.stab.excl)

.stab.exclstr
 *(.stab.exclstr)

.stab.index
 *(.stab.index)

.stab.indexstr
 *(.stab.indexstr)

.comment        0x0000000000000000       0x6a
 *(.comment)
 .comment       0x0000000000000000       0x2a /usr/lib/gcc/x86_64-linux-gnu/4.6.1/crtbegin.o
                                         0x2b (size before relaxing)
 .comment       0x0000000000000000       0x2b mpidriver.o
 .comment       0x0000000000000000       0x2b trace.o
 .comment       0x0000000000000000       0x2b novoalignCSMPI.a(novoalignMPI_main.o)
 .comment       0x0000000000000000       0x2b novoalignCSMPI.a(fragdist.o)
 .comment       0x0000000000000000       0x2b novoalignCSMPI.a(indelstats.o)
 .comment       0x0000000000000000       0x2b novoalignCSMPI.a(ksgroups.o)
 .comment       0x0000000000000000       0x2b novoalignCSMPI.a(ksindex.o)
 .comment       0x0000000000000000       0x2b novoalignCSMPI.a(novoalignmpi.o)
 .comment       0x0000000000000000       0x2b novoalignCSMPI.a(novolib.o)
 .comment       0x0000000000000000       0x2b novoalignCSMPI.a(novoparam.o)
 .comment       0x0000000000000000       0x2b novoalignCSMPI.a(posteriorP.o)
 .comment       0x0000000000000000       0x2b novoalignCSMPI.a(prbcalibrateCS.o)
 .comment       0x0000000000000000       0x2b novoalignCSMPI.a(prbcalibrateMPI.o)
 .comment       0x0000000000000000       0x2b novoalignCSMPI.a(qualconvert.o)
 .comment       0x0000000000000000       0x2b novoalignCSMPI.a(queryfolder.o)
 .comment       0x0000000000000000       0x2b novoalignCSMPI.a(queryformatCS.o)
 .comment       0x0000000000000000       0x2b novoalignCSMPI.a(queryreader.o)
 .comment       0x0000000000000000       0x2b novoalignCSMPI.a(queryreaderCS.o)
 .comment       0x0000000000000000       0x2b novoalignCSMPI.a(reporter.o)
 .comment       0x0000000000000000       0x2b novoalignCSMPI.a(rptNative.o)
 .comment       0x0000000000000000       0x2b novoalignCSMPI.a(rptSAM.o)
 .comment       0x0000000000000000       0x2b novoalignCSMPI.a(TThread.o)
 .comment       0x0000000000000000       0x2b novoalignCSMPI.a(TThreadPool.o)
 .comment       0x0000000000000000       0x2b novoalignCSMPI.a(TTimer.o)
 .comment       0x0000000000000000       0x2b novoalignCSMPI.a(wmsearch.o)
 .comment       0x0000000000000000       0x2b novoalignCSMPI.a(linkdate.o)
 .comment       0x0000000000000000       0x2b novoalignCSMPI.a(filehandle.o)
 .comment       0x0000000000000000       0x2b novoalignCSMPI.a(findamateCS.o)
 .comment       0x0000000000000000       0x2b novoalignCSMPI.a(fragdistMPI.o)
 .comment       0x0000000000000000       0x2b novoalignCSMPI.a(iubcodes.o)
 .comment       0x0000000000000000       0x2b novoalignCSMPI.a(keygenCS.o)
 .comment       0x0000000000000000       0x2b novoalignCSMPI.a(license.o)
 .comment       0x0000000000000000       0x2b novoalignCSMPI.a(nawmCS.o)
 .comment       0x0000000000000000       0x2b novoalignCSMPI.a(needleCS.o)
 .comment       0x0000000000000000       0x2b novoalignCSMPI.a(qryopt.o)
 .comment       0x0000000000000000       0x2b novoalignCSMPI.a(shortnwCS.o)
 .comment       0x0000000000000000       0x2b novoalignCSMPI.a(cscodes.o)
 .comment       0x0000000000000000       0x2b ./tcmalloc/libtcmalloc.a(libtcmalloc_la-tcmalloc.o)
 .comment       0x0000000000000000       0x2b ./tcmalloc/libtcmalloc.a(atomicops-internals-x86.o)
 .comment       0x0000000000000000       0x2b ./tcmalloc/libtcmalloc.a(dynamic_annotations.o)
 .comment       0x0000000000000000       0x2b ./tcmalloc/libtcmalloc.a(libtcmalloc_internal_la-central_freelist.o)
 .comment       0x0000000000000000       0x2b ./tcmalloc/libtcmalloc.a(libtcmalloc_internal_la-common.o)
 .comment       0x0000000000000000       0x2b ./tcmalloc/libtcmalloc.a(libtcmalloc_internal_la-internal_logging.o)
 .comment       0x0000000000000000       0x2b ./tcmalloc/libtcmalloc.a(libtcmalloc_internal_la-malloc_extension.o)
 .comment       0x0000000000000000       0x2b ./tcmalloc/libtcmalloc.a(libtcmalloc_internal_la-malloc_hook.o)
 .comment       0x0000000000000000       0x2b ./tcmalloc/libtcmalloc.a(libtcmalloc_internal_la-maybe_threads.o)
 .comment       0x0000000000000000       0x2b ./tcmalloc/libtcmalloc.a(libtcmalloc_internal_la-page_heap.o)
 .comment       0x0000000000000000       0x2b ./tcmalloc/libtcmalloc.a(libtcmalloc_internal_la-sampler.o)
 .comment       0x0000000000000000       0x2b ./tcmalloc/libtcmalloc.a(libtcmalloc_internal_la-span.o)
 .comment       0x0000000000000000       0x2b ./tcmalloc/libtcmalloc.a(libtcmalloc_internal_la-stack_trace_table.o)
 .comment       0x0000000000000000       0x2b ./tcmalloc/libtcmalloc.a(libtcmalloc_internal_la-static_vars.o)
 .comment       0x0000000000000000       0x2b ./tcmalloc/libtcmalloc.a(libtcmalloc_internal_la-system-alloc.o)
 .comment       0x0000000000000000       0x2b ./tcmalloc/libtcmalloc.a(libtcmalloc_internal_la-thread_cache.o)
 .comment       0x0000000000000000       0x2b ./tcmalloc/libtcmalloc.a(logging.o)
 .comment       0x0000000000000000       0x2b ./tcmalloc/libtcmalloc.a(spinlock.o)
 .comment       0x0000000000000000       0x2b ./tcmalloc/libtcmalloc.a(spinlock_internal.o)
 .comment       0x0000000000000000       0x2b ./tcmalloc/libtcmalloc.a(stacktrace.o)
 .comment       0x0000000000000000       0x2b ./tcmalloc/libtcmalloc.a(sysinfo.o)
 .comment       0x0000000000000000       0x2b ./tcmalloc/libtcmalloc.a(libtcmalloc_la-heap-checker.o)
 .comment       0x0000000000000000       0x2b ./tcmalloc/libtcmalloc.a(libtcmalloc_la-heap-checker-bcad.o)
 .comment       0x0000000000000000       0x2b ./tcmalloc/libtcmalloc.a(libtcmalloc_internal_la-heap-profile-table.o)
 .comment       0x0000000000000000       0x2b ./tcmalloc/libtcmalloc.a(libtcmalloc_internal_la-low_level_alloc.o)
 .comment       0x0000000000000000       0x2b ./tcmalloc/libtcmalloc.a(libtcmalloc_internal_la-memory_region_map.o)
 .comment       0x0000000000000000       0x2b ./tcmalloc/libtcmalloc.a(libtcmalloc_internal_la-raw_printer.o)
 .comment       0x0000000000000000       0x2b ./tcmalloc/libtcmalloc.a(libtcmalloc_internal_la-symbolize.o)
 .comment       0x0000000000000000       0x2b ./tcmalloc/libtcmalloc.a(libtcmalloc_la-linuxthreads.o)
 .comment       0x000000000000002a       0x40 ./unwind/libunwind.a(backtrace.o)
                                         0x41 (size before relaxing)
 .comment       0x0000000000000000       0x41 ./unwind/libunwind.a(Lget_reg.o)
 .comment       0x0000000000000000       0x41 ./unwind/libunwind.a(Linit_local.o)
 .comment       0x0000000000000000       0x41 ./unwind/libunwind.a(Lregs.o)
 .comment       0x0000000000000000       0x41 ./unwind/libunwind.a(lt1-Lstep.o)
 .comment       0x0000000000000000       0x41 ./unwind/libunwind.a(Lstep.o)
 .comment       0x0000000000000000       0x41 ./unwind/libunwind.a(Lglobal.o)
 .comment       0x0000000000000000       0x41 ./unwind/libunwind.a(Linit.o)
 .comment       0x0000000000000000       0x41 ./unwind/libunwind.a(Lis_signal_frame.o)
 .comment       0x0000000000000000       0x41 ./unwind/libunwind.a(Lresume.o)
 .comment       0x0000000000000000       0x41 ./unwind/libunwind.a(init.o)
 .comment       0x0000000000000000       0x41 ./unwind/libunwind.a(flush_cache.o)
 .comment       0x0000000000000000       0x41 ./unwind/libunwind.a(global.o)
 .comment       0x0000000000000000       0x41 ./unwind/libunwind.a(elf64.o)
 .comment       0x0000000000000000       0x41 ./unwind/libunwind.a(is_fpreg.o)
 .comment       0x0000000000000000       0x41 ./unwind/libunwind.a(Lget_accessors.o)
 .comment       0x0000000000000000       0x41 ./unwind/libunwind.a(Lparser.o)
 .comment       0x0000000000000000       0x41 ./unwind/libunwind.a(Lpe.o)
 .comment       0x0000000000000000       0x41 ./unwind/libunwind.a(Lfind_proc_info-lsb.o)
 .comment       0x0000000000000000       0x41 ./unwind/libunwind.a(os-linux.o)
 .comment       0x0000000000000000       0x41 ./unwind/libunwind.a(mempool.o)
 .comment       0x0000000000000000       0x41 ./unwind/libunwind.a(Lfind_dynamic_proc_info.o)
 .comment       0x0000000000000000       0x41 ./unwind/libunwind.a(Lput_dynamic_unwind_info.o)
 .comment       0x0000000000000000       0x41 ./unwind/libunwind.a(Lexpr.o)
 .comment       0x0000000000000000       0x41 ./unwind/libunwind.a(Lfde.o)
 .comment       0x0000000000000000       0x41 ./unwind/libunwind.a(dyn-info-list.o)
 .comment       0x0000000000000000       0x41 ./unwind/libunwind.a(Ldyn-extract.o)
 .comment       0x0000000000000000       0x2b /usr/lib/x86_64-linux-gnu/libpthread_nonshared.a(pthread_atfork.oS)
 .comment       0x0000000000000000       0x2b /usr/lib/x86_64-linux-gnu/libc_nonshared.a(elf-init.oS)
 .comment       0x0000000000000000       0x2b /usr/lib/gcc/x86_64-linux-gnu/4.6.1/crtend.o

.debug
 *(.debug)

.line
 *(.line)

.debug_srcinfo
 *(.debug_srcinfo)

.debug_sfnames
 *(.debug_sfnames)

.debug_aranges  0x0000000000000000      0xf70
 *(.debug_aranges)
 .debug_aranges
                0x0000000000000000      0x330 ./tcmalloc/libtcmalloc.a(libtcmalloc_la-tcmalloc.o)
 .debug_aranges
                0x0000000000000330       0x60 ./tcmalloc/libtcmalloc.a(atomicops-internals-x86.o)
 .debug_aranges
                0x0000000000000390       0x30 ./tcmalloc/libtcmalloc.a(dynamic_annotations.o)
 .debug_aranges
                0x00000000000003c0       0x30 ./tcmalloc/libtcmalloc.a(libtcmalloc_internal_la-central_freelist.o)
 .debug_aranges
                0x00000000000003f0       0x30 ./tcmalloc/libtcmalloc.a(libtcmalloc_internal_la-common.o)
 .debug_aranges
                0x0000000000000420       0x30 ./tcmalloc/libtcmalloc.a(libtcmalloc_internal_la-internal_logging.o)
 .debug_aranges
                0x0000000000000450       0x30 ./tcmalloc/libtcmalloc.a(libtcmalloc_internal_la-malloc_extension.o)
 .debug_aranges
                0x0000000000000480       0xf0 ./tcmalloc/libtcmalloc.a(libtcmalloc_internal_la-malloc_hook.o)
 .debug_aranges
                0x0000000000000570       0x30 ./tcmalloc/libtcmalloc.a(libtcmalloc_internal_la-maybe_threads.o)
 .debug_aranges
                0x00000000000005a0       0x40 ./tcmalloc/libtcmalloc.a(libtcmalloc_internal_la-page_heap.o)
 .debug_aranges
                0x00000000000005e0       0x40 ./tcmalloc/libtcmalloc.a(libtcmalloc_internal_la-sampler.o)
 .debug_aranges
                0x0000000000000620       0x30 ./tcmalloc/libtcmalloc.a(libtcmalloc_internal_la-span.o)
 .debug_aranges
                0x0000000000000650       0x30 ./tcmalloc/libtcmalloc.a(libtcmalloc_internal_la-stack_trace_table.o)
 .debug_aranges
                0x0000000000000680       0x70 ./tcmalloc/libtcmalloc.a(libtcmalloc_internal_la-static_vars.o)
 .debug_aranges
                0x00000000000006f0       0xc0 ./tcmalloc/libtcmalloc.a(libtcmalloc_internal_la-system-alloc.o)
 .debug_aranges
                0x00000000000007b0       0x40 ./tcmalloc/libtcmalloc.a(libtcmalloc_internal_la-thread_cache.o)
 .debug_aranges
                0x00000000000007f0       0x40 ./tcmalloc/libtcmalloc.a(logging.o)
 .debug_aranges
                0x0000000000000830       0x40 ./tcmalloc/libtcmalloc.a(spinlock.o)
 .debug_aranges
                0x0000000000000870       0x40 ./tcmalloc/libtcmalloc.a(spinlock_internal.o)
 .debug_aranges
                0x00000000000008b0       0x30 ./tcmalloc/libtcmalloc.a(stacktrace.o)
 .debug_aranges
                0x00000000000008e0       0x50 ./tcmalloc/libtcmalloc.a(sysinfo.o)
 .debug_aranges
                0x0000000000000930      0x1f0 ./tcmalloc/libtcmalloc.a(libtcmalloc_la-heap-checker.o)
 .debug_aranges
                0x0000000000000b20       0x40 ./tcmalloc/libtcmalloc.a(libtcmalloc_la-heap-checker-bcad.o)
 .debug_aranges
                0x0000000000000b60      0x190 ./tcmalloc/libtcmalloc.a(libtcmalloc_internal_la-heap-profile-table.o)
 .debug_aranges
                0x0000000000000cf0       0x80 ./tcmalloc/libtcmalloc.a(libtcmalloc_internal_la-low_level_alloc.o)
 .debug_aranges
                0x0000000000000d70       0xe0 ./tcmalloc/libtcmalloc.a(libtcmalloc_internal_la-memory_region_map.o)
 .debug_aranges
                0x0000000000000e50       0x30 ./tcmalloc/libtcmalloc.a(libtcmalloc_internal_la-raw_printer.o)
 .debug_aranges
                0x0000000000000e80       0x90 ./tcmalloc/libtcmalloc.a(libtcmalloc_internal_la-symbolize.o)
 .debug_aranges
                0x0000000000000f10       0x30 ./tcmalloc/libtcmalloc.a(libtcmalloc_la-linuxthreads.o)
 .debug_aranges
                0x0000000000000f40       0x30 /usr/lib/x86_64-linux-gnu/libpthread_nonshared.a(pthread_atfork.oS)

.debug_pubnames
 *(.debug_pubnames)

.debug_info     0x0000000000000000    0xad9b4
 *(.debug_info .gnu.linkonce.wi.*)
 .debug_info    0x0000000000000000    0x19144 ./tcmalloc/libtcmalloc.a(libtcmalloc_la-tcmalloc.o)
 .debug_info    0x0000000000019144     0x175c ./tcmalloc/libtcmalloc.a(atomicops-internals-x86.o)
 .debug_info    0x000000000001a8a0      0x381 ./tcmalloc/libtcmalloc.a(dynamic_annotations.o)
 .debug_info    0x000000000001ac21     0x5343 ./tcmalloc/libtcmalloc.a(libtcmalloc_internal_la-central_freelist.o)
 .debug_info    0x000000000001ff64     0x1765 ./tcmalloc/libtcmalloc.a(libtcmalloc_internal_la-common.o)
 .debug_info    0x00000000000216c9     0x20a7 ./tcmalloc/libtcmalloc.a(libtcmalloc_internal_la-internal_logging.o)
 .debug_info    0x0000000000023770     0x5d86 ./tcmalloc/libtcmalloc.a(libtcmalloc_internal_la-malloc_extension.o)
 .debug_info    0x00000000000294f6     0xb8fa ./tcmalloc/libtcmalloc.a(libtcmalloc_internal_la-malloc_hook.o)
 .debug_info    0x0000000000034df0     0x133b ./tcmalloc/libtcmalloc.a(libtcmalloc_internal_la-maybe_threads.o)
 .debug_info    0x000000000003612b     0x48e1 ./tcmalloc/libtcmalloc.a(libtcmalloc_internal_la-page_heap.o)
 .debug_info    0x000000000003aa0c     0x1b2e ./tcmalloc/libtcmalloc.a(libtcmalloc_internal_la-sampler.o)
 .debug_info    0x000000000003c53a     0x2ff1 ./tcmalloc/libtcmalloc.a(libtcmalloc_internal_la-span.o)
 .debug_info    0x000000000003f52b     0x3553 ./tcmalloc/libtcmalloc.a(libtcmalloc_internal_la-stack_trace_table.o)
 .debug_info    0x0000000000042a7e     0x3f4f ./tcmalloc/libtcmalloc.a(libtcmalloc_internal_la-static_vars.o)
 .debug_info    0x00000000000469cd     0x2a91 ./tcmalloc/libtcmalloc.a(libtcmalloc_internal_la-system-alloc.o)
 .debug_info    0x000000000004945e     0x5c7a ./tcmalloc/libtcmalloc.a(libtcmalloc_internal_la-thread_cache.o)
 .debug_info    0x000000000004f0d8     0x13bc ./tcmalloc/libtcmalloc.a(logging.o)
 .debug_info    0x0000000000050494     0x1ac2 ./tcmalloc/libtcmalloc.a(spinlock.o)
 .debug_info    0x0000000000051f56      0xa4c ./tcmalloc/libtcmalloc.a(spinlock_internal.o)
 .debug_info    0x00000000000529a2     0x1966 ./tcmalloc/libtcmalloc.a(stacktrace.o)
 .debug_info    0x0000000000054308     0x383d ./tcmalloc/libtcmalloc.a(sysinfo.o)
 .debug_info    0x0000000000057b45    0x2a49f ./tcmalloc/libtcmalloc.a(libtcmalloc_la-heap-checker.o)
 .debug_info    0x0000000000081fe4      0xfdf ./tcmalloc/libtcmalloc.a(libtcmalloc_la-heap-checker-bcad.o)
 .debug_info    0x0000000000082fc3    0x12b4d ./tcmalloc/libtcmalloc.a(libtcmalloc_internal_la-heap-profile-table.o)
 .debug_info    0x0000000000095b10     0x3e7b ./tcmalloc/libtcmalloc.a(libtcmalloc_internal_la-low_level_alloc.o)
 .debug_info    0x000000000009998b     0x91c0 ./tcmalloc/libtcmalloc.a(libtcmalloc_internal_la-memory_region_map.o)
 .debug_info    0x00000000000a2b4b     0x1480 ./tcmalloc/libtcmalloc.a(libtcmalloc_internal_la-raw_printer.o)
 .debug_info    0x00000000000a3fcb     0x68e0 ./tcmalloc/libtcmalloc.a(libtcmalloc_internal_la-symbolize.o)
 .debug_info    0x00000000000aa8ab     0x2fb0 ./tcmalloc/libtcmalloc.a(libtcmalloc_la-linuxthreads.o)
 .debug_info    0x00000000000ad85b      0x159 /usr/lib/x86_64-linux-gnu/libpthread_nonshared.a(pthread_atfork.oS)

.debug_abbrev   0x0000000000000000     0xdcc3
 *(.debug_abbrev)
 .debug_abbrev  0x0000000000000000      0xfa8 ./tcmalloc/libtcmalloc.a(libtcmalloc_la-tcmalloc.o)
 .debug_abbrev  0x0000000000000fa8      0x4b5 ./tcmalloc/libtcmalloc.a(atomicops-internals-x86.o)
 .debug_abbrev  0x000000000000145d      0x16e ./tcmalloc/libtcmalloc.a(dynamic_annotations.o)
 .debug_abbrev  0x00000000000015cb      0x9c7 ./tcmalloc/libtcmalloc.a(libtcmalloc_internal_la-central_freelist.o)
 .debug_abbrev  0x0000000000001f92      0x5a7 ./tcmalloc/libtcmalloc.a(libtcmalloc_internal_la-common.o)
 .debug_abbrev  0x0000000000002539      0x697 ./tcmalloc/libtcmalloc.a(libtcmalloc_internal_la-internal_logging.o)
 .debug_abbrev  0x0000000000002bd0      0xa95 ./tcmalloc/libtcmalloc.a(libtcmalloc_internal_la-malloc_extension.o)
 .debug_abbrev  0x0000000000003665      0xa1e ./tcmalloc/libtcmalloc.a(libtcmalloc_internal_la-malloc_hook.o)
 .debug_abbrev  0x0000000000004083      0x2d1 ./tcmalloc/libtcmalloc.a(libtcmalloc_internal_la-maybe_threads.o)
 .debug_abbrev  0x0000000000004354      0xa0e ./tcmalloc/libtcmalloc.a(libtcmalloc_internal_la-page_heap.o)
 .debug_abbrev  0x0000000000004d62      0x53f ./tcmalloc/libtcmalloc.a(libtcmalloc_internal_la-sampler.o)
 .debug_abbrev  0x00000000000052a1      0x7e5 ./tcmalloc/libtcmalloc.a(libtcmalloc_internal_la-span.o)
 .debug_abbrev  0x0000000000005a86      0x8c7 ./tcmalloc/libtcmalloc.a(libtcmalloc_internal_la-stack_trace_table.o)
 .debug_abbrev  0x000000000000634d      0x958 ./tcmalloc/libtcmalloc.a(libtcmalloc_internal_la-static_vars.o)
 .debug_abbrev  0x0000000000006ca5      0x7ae ./tcmalloc/libtcmalloc.a(libtcmalloc_internal_la-system-alloc.o)
 .debug_abbrev  0x0000000000007453      0xba5 ./tcmalloc/libtcmalloc.a(libtcmalloc_internal_la-thread_cache.o)
 .debug_abbrev  0x0000000000007ff8      0x36f ./tcmalloc/libtcmalloc.a(logging.o)
 .debug_abbrev  0x0000000000008367      0x5c5 ./tcmalloc/libtcmalloc.a(spinlock.o)
 .debug_abbrev  0x000000000000892c      0x38d ./tcmalloc/libtcmalloc.a(spinlock_internal.o)
 .debug_abbrev  0x0000000000008cb9      0x34a ./tcmalloc/libtcmalloc.a(stacktrace.o)
 .debug_abbrev  0x0000000000009003      0x73f ./tcmalloc/libtcmalloc.a(sysinfo.o)
 .debug_abbrev  0x0000000000009742      0xfb7 ./tcmalloc/libtcmalloc.a(libtcmalloc_la-heap-checker.o)
 .debug_abbrev  0x000000000000a6f9      0x30a ./tcmalloc/libtcmalloc.a(libtcmalloc_la-heap-checker-bcad.o)
 .debug_abbrev  0x000000000000aa03      0xd55 ./tcmalloc/libtcmalloc.a(libtcmalloc_internal_la-heap-profile-table.o)
 .debug_abbrev  0x000000000000b758      0x7e9 ./tcmalloc/libtcmalloc.a(libtcmalloc_internal_la-low_level_alloc.o)
 .debug_abbrev  0x000000000000bf41      0xaeb ./tcmalloc/libtcmalloc.a(libtcmalloc_internal_la-memory_region_map.o)
 .debug_abbrev  0x000000000000ca2c      0x401 ./tcmalloc/libtcmalloc.a(libtcmalloc_internal_la-raw_printer.o)
 .debug_abbrev  0x000000000000ce2d      0x95c ./tcmalloc/libtcmalloc.a(libtcmalloc_internal_la-symbolize.o)
 .debug_abbrev  0x000000000000d789      0x4ab ./tcmalloc/libtcmalloc.a(libtcmalloc_la-linuxthreads.o)
 .debug_abbrev  0x000000000000dc34       0x8f /usr/lib/x86_64-linux-gnu/libpthread_nonshared.a(pthread_atfork.oS)

.debug_line     0x0000000000000000    0x12785
 *(.debug_line)
 .debug_line    0x0000000000000000     0x36ac ./tcmalloc/libtcmalloc.a(libtcmalloc_la-tcmalloc.o)
 .debug_line    0x00000000000036ac      0x3bc ./tcmalloc/libtcmalloc.a(atomicops-internals-x86.o)
 .debug_line    0x0000000000003a68       0xfc ./tcmalloc/libtcmalloc.a(dynamic_annotations.o)
 .debug_line    0x0000000000003b64      0x8a9 ./tcmalloc/libtcmalloc.a(libtcmalloc_internal_la-central_freelist.o)
 .debug_line    0x000000000000440d      0x3c0 ./tcmalloc/libtcmalloc.a(libtcmalloc_internal_la-common.o)
 .debug_line    0x00000000000047cd      0x43e ./tcmalloc/libtcmalloc.a(libtcmalloc_internal_la-internal_logging.o)
 .debug_line    0x0000000000004c0b      0x638 ./tcmalloc/libtcmalloc.a(libtcmalloc_internal_la-malloc_extension.o)
 .debug_line    0x0000000000005243     0x170c ./tcmalloc/libtcmalloc.a(libtcmalloc_internal_la-malloc_hook.o)
 .debug_line    0x000000000000694f      0x262 ./tcmalloc/libtcmalloc.a(libtcmalloc_internal_la-maybe_threads.o)
 .debug_line    0x0000000000006bb1      0xa19 ./tcmalloc/libtcmalloc.a(libtcmalloc_internal_la-page_heap.o)
 .debug_line    0x00000000000075ca      0x32d ./tcmalloc/libtcmalloc.a(libtcmalloc_internal_la-sampler.o)
 .debug_line    0x00000000000078f7      0x3bd ./tcmalloc/libtcmalloc.a(libtcmalloc_internal_la-span.o)
 .debug_line    0x0000000000007cb4      0x513 ./tcmalloc/libtcmalloc.a(libtcmalloc_internal_la-stack_trace_table.o)
 .debug_line    0x00000000000081c7      0x5fa ./tcmalloc/libtcmalloc.a(libtcmalloc_internal_la-static_vars.o)
 .debug_line    0x00000000000087c1      0x5bb ./tcmalloc/libtcmalloc.a(libtcmalloc_internal_la-system-alloc.o)
 .debug_line    0x0000000000008d7c      0x9e7 ./tcmalloc/libtcmalloc.a(libtcmalloc_internal_la-thread_cache.o)
 .debug_line    0x0000000000009763      0x2c8 ./tcmalloc/libtcmalloc.a(logging.o)
 .debug_line    0x0000000000009a2b      0x36e ./tcmalloc/libtcmalloc.a(spinlock.o)
 .debug_line    0x0000000000009d99      0x277 ./tcmalloc/libtcmalloc.a(spinlock_internal.o)
 .debug_line    0x000000000000a010      0x3d4 ./tcmalloc/libtcmalloc.a(stacktrace.o)
 .debug_line    0x000000000000a3e4      0xa2d ./tcmalloc/libtcmalloc.a(sysinfo.o)
 .debug_line    0x000000000000ae11     0x312b ./tcmalloc/libtcmalloc.a(libtcmalloc_la-heap-checker.o)
 .debug_line    0x000000000000df3c      0x252 ./tcmalloc/libtcmalloc.a(libtcmalloc_la-heap-checker-bcad.o)
 .debug_line    0x000000000000e18e     0x16f9 ./tcmalloc/libtcmalloc.a(libtcmalloc_internal_la-heap-profile-table.o)
 .debug_line    0x000000000000f887      0x79f ./tcmalloc/libtcmalloc.a(libtcmalloc_internal_la-low_level_alloc.o)
 .debug_line    0x0000000000010026     0x13ae ./tcmalloc/libtcmalloc.a(libtcmalloc_internal_la-memory_region_map.o)
 .debug_line    0x00000000000113d4      0x292 ./tcmalloc/libtcmalloc.a(libtcmalloc_internal_la-raw_printer.o)
 .debug_line    0x0000000000011666      0x7e9 ./tcmalloc/libtcmalloc.a(libtcmalloc_internal_la-symbolize.o)
 .debug_line    0x0000000000011e4f      0x8ca ./tcmalloc/libtcmalloc.a(libtcmalloc_la-linuxthreads.o)
 .debug_line    0x0000000000012719       0x6c /usr/lib/x86_64-linux-gnu/libpthread_nonshared.a(pthread_atfork.oS)

.debug_frame
 *(.debug_frame)

.debug_str      0x0000000000000000    0x42140
 *(.debug_str)
 .debug_str     0x0000000000000000     0x9497 ./tcmalloc/libtcmalloc.a(libtcmalloc_la-tcmalloc.o)
                                       0x9df7 (size before relaxing)
 .debug_str     0x0000000000009497      0x26e ./tcmalloc/libtcmalloc.a(atomicops-internals-x86.o)
                                        0xbdb (size before relaxing)
 .debug_str     0x0000000000009705      0x318 ./tcmalloc/libtcmalloc.a(dynamic_annotations.o)
                                        0x411 (size before relaxing)
 .debug_str     0x0000000000009a1d       0xc9 ./tcmalloc/libtcmalloc.a(libtcmalloc_internal_la-central_freelist.o)
                                       0x2898 (size before relaxing)
 .debug_str     0x0000000000009ae6      0x1e2 ./tcmalloc/libtcmalloc.a(libtcmalloc_internal_la-common.o)
                                        0xa3d (size before relaxing)
 .debug_str     0x0000000000009cc8      0x14f ./tcmalloc/libtcmalloc.a(libtcmalloc_internal_la-internal_logging.o)
                                        0xf1f (size before relaxing)
 .debug_str     0x0000000000009e17      0xa1f ./tcmalloc/libtcmalloc.a(libtcmalloc_internal_la-malloc_extension.o)
                                       0x4347 (size before relaxing)
 .debug_str     0x000000000000a836     0x13e5 ./tcmalloc/libtcmalloc.a(libtcmalloc_internal_la-malloc_hook.o)
                                       0x36e1 (size before relaxing)
 .debug_str     0x000000000000bc1b      0x16f ./tcmalloc/libtcmalloc.a(libtcmalloc_internal_la-maybe_threads.o)
                                        0x9f2 (size before relaxing)
 .debug_str     0x000000000000bd8a      0x2d2 ./tcmalloc/libtcmalloc.a(libtcmalloc_internal_la-page_heap.o)
                                       0x29c4 (size before relaxing)
 .debug_str     0x000000000000c05c      0x117 ./tcmalloc/libtcmalloc.a(libtcmalloc_internal_la-sampler.o)
                                        0xd05 (size before relaxing)
 .debug_str     0x000000000000c173      0x118 ./tcmalloc/libtcmalloc.a(libtcmalloc_internal_la-span.o)
                                       0x2676 (size before relaxing)
 .debug_str     0x000000000000c28b       0x21 ./tcmalloc/libtcmalloc.a(libtcmalloc_internal_la-stack_trace_table.o)
                                       0x2641 (size before relaxing)
 .debug_str     0x000000000000c2ac      0x231 ./tcmalloc/libtcmalloc.a(libtcmalloc_internal_la-static_vars.o)
                                       0x2ba5 (size before relaxing)
 .debug_str     0x000000000000c4dd      0x855 ./tcmalloc/libtcmalloc.a(libtcmalloc_internal_la-system-alloc.o)
                                       0x1636 (size before relaxing)
 .debug_str     0x000000000000cd32      0x439 ./tcmalloc/libtcmalloc.a(libtcmalloc_internal_la-thread_cache.o)
                                       0x3ca0 (size before relaxing)
 .debug_str     0x000000000000d16b       0xee ./tcmalloc/libtcmalloc.a(logging.o)
                                        0xa7a (size before relaxing)
 .debug_str     0x000000000000d259      0x17e ./tcmalloc/libtcmalloc.a(spinlock.o)
                                        0xd54 (size before relaxing)
 .debug_str     0x000000000000d3d7      0x1a9 ./tcmalloc/libtcmalloc.a(spinlock_internal.o)
                                        0x4b3 (size before relaxing)
 .debug_str     0x000000000000d580      0x2a3 ./tcmalloc/libtcmalloc.a(stacktrace.o)
                                        0xc4d (size before relaxing)
 .debug_str     0x000000000000d823      0xead ./tcmalloc/libtcmalloc.a(sysinfo.o)
                                       0x1a66 (size before relaxing)
 .debug_str     0x000000000000e6d0    0x27ef1 ./tcmalloc/libtcmalloc.a(libtcmalloc_la-heap-checker.o)
                                      0x2c50d (size before relaxing)
 .debug_str     0x00000000000365c1       0xb2 ./tcmalloc/libtcmalloc.a(libtcmalloc_la-heap-checker-bcad.o)
                                        0x7dc (size before relaxing)
 .debug_str     0x0000000000036673     0x9e9b ./tcmalloc/libtcmalloc.a(libtcmalloc_internal_la-heap-profile-table.o)
                                      0x12772 (size before relaxing)
 .debug_str     0x000000000004050e      0x2f0 ./tcmalloc/libtcmalloc.a(libtcmalloc_internal_la-low_level_alloc.o)
                                       0x22ef (size before relaxing)
 .debug_str     0x00000000000407fe      0x9d5 ./tcmalloc/libtcmalloc.a(libtcmalloc_internal_la-memory_region_map.o)
                                       0x7b0f (size before relaxing)
 .debug_str     0x00000000000411d3       0x19 ./tcmalloc/libtcmalloc.a(libtcmalloc_internal_la-raw_printer.o)
                                        0xa2b (size before relaxing)
 .debug_str     0x00000000000411ec      0x6af ./tcmalloc/libtcmalloc.a(libtcmalloc_internal_la-symbolize.o)
                                       0x5ffb (size before relaxing)
 .debug_str     0x000000000004189b      0x82a ./tcmalloc/libtcmalloc.a(libtcmalloc_la-linuxthreads.o)
                                        0xcbf (size before relaxing)
 .debug_str     0x00000000000420c5       0x7b /usr/lib/x86_64-linux-gnu/libpthread_nonshared.a(pthread_atfork.oS)
                                        0x131 (size before relaxing)

.debug_loc      0x0000000000000000    0x69cb0
 *(.debug_loc)
 .debug_loc     0x0000000000000000    0x190a1 ./tcmalloc/libtcmalloc.a(libtcmalloc_la-tcmalloc.o)
 .debug_loc     0x00000000000190a1      0x60a ./tcmalloc/libtcmalloc.a(atomicops-internals-x86.o)
 .debug_loc     0x00000000000196ab      0x27d ./tcmalloc/libtcmalloc.a(dynamic_annotations.o)
 .debug_loc     0x0000000000019928     0x28d2 ./tcmalloc/libtcmalloc.a(libtcmalloc_internal_la-central_freelist.o)
 .debug_loc     0x000000000001c1fa     0x126d ./tcmalloc/libtcmalloc.a(libtcmalloc_internal_la-common.o)
 .debug_loc     0x000000000001d467      0xa1d ./tcmalloc/libtcmalloc.a(libtcmalloc_internal_la-internal_logging.o)
 .debug_loc     0x000000000001de84     0x1acf ./tcmalloc/libtcmalloc.a(libtcmalloc_internal_la-malloc_extension.o)
 .debug_loc     0x000000000001f953     0xcb6c ./tcmalloc/libtcmalloc.a(libtcmalloc_internal_la-malloc_hook.o)
 .debug_loc     0x000000000002c4bf      0x227 ./tcmalloc/libtcmalloc.a(libtcmalloc_internal_la-maybe_threads.o)
 .debug_loc     0x000000000002c6e6     0x3cde ./tcmalloc/libtcmalloc.a(libtcmalloc_internal_la-page_heap.o)
 .debug_loc     0x00000000000303c4      0x3f9 ./tcmalloc/libtcmalloc.a(libtcmalloc_internal_la-sampler.o)
 .debug_loc     0x00000000000307bd      0x20c ./tcmalloc/libtcmalloc.a(libtcmalloc_internal_la-span.o)
 .debug_loc     0x00000000000309c9      0xad8 ./tcmalloc/libtcmalloc.a(libtcmalloc_internal_la-stack_trace_table.o)
 .debug_loc     0x00000000000314a1      0xe13 ./tcmalloc/libtcmalloc.a(libtcmalloc_internal_la-static_vars.o)
 .debug_loc     0x00000000000322b4     0x1890 ./tcmalloc/libtcmalloc.a(libtcmalloc_internal_la-system-alloc.o)
 .debug_loc     0x0000000000033b44     0x2176 ./tcmalloc/libtcmalloc.a(libtcmalloc_internal_la-thread_cache.o)
 .debug_loc     0x0000000000035cba      0x377 ./tcmalloc/libtcmalloc.a(logging.o)
 .debug_loc     0x0000000000036031      0x797 ./tcmalloc/libtcmalloc.a(spinlock.o)
 .debug_loc     0x00000000000367c8      0x8ea ./tcmalloc/libtcmalloc.a(spinlock_internal.o)
 .debug_loc     0x00000000000370b2      0xbbe ./tcmalloc/libtcmalloc.a(stacktrace.o)
 .debug_loc     0x0000000000037c70     0x3e6c ./tcmalloc/libtcmalloc.a(sysinfo.o)
 .debug_loc     0x000000000003badc    0x176da ./tcmalloc/libtcmalloc.a(libtcmalloc_la-heap-checker.o)
 .debug_loc     0x00000000000531b6      0x10a ./tcmalloc/libtcmalloc.a(libtcmalloc_la-heap-checker-bcad.o)
 .debug_loc     0x00000000000532c0     0x9699 ./tcmalloc/libtcmalloc.a(libtcmalloc_internal_la-heap-profile-table.o)
 .debug_loc     0x000000000005c959     0x2d41 ./tcmalloc/libtcmalloc.a(libtcmalloc_internal_la-low_level_alloc.o)
 .debug_loc     0x000000000005f69a     0x56d1 ./tcmalloc/libtcmalloc.a(libtcmalloc_internal_la-memory_region_map.o)
 .debug_loc     0x0000000000064d6b      0x2f3 ./tcmalloc/libtcmalloc.a(libtcmalloc_internal_la-raw_printer.o)
 .debug_loc     0x000000000006505e     0x1911 ./tcmalloc/libtcmalloc.a(libtcmalloc_internal_la-symbolize.o)
 .debug_loc     0x000000000006696f     0x329f ./tcmalloc/libtcmalloc.a(libtcmalloc_la-linuxthreads.o)
 .debug_loc     0x0000000000069c0e       0xa2 /usr/lib/x86_64-linux-gnu/libpthread_nonshared.a(pthread_atfork.oS)

.debug_macinfo
 *(.debug_macinfo)

.debug_weaknames
 *(.debug_weaknames)

.debug_funcnames
 *(.debug_funcnames)

.debug_typenames
 *(.debug_typenames)

.debug_varnames
 *(.debug_varnames)

.debug_pubtypes
 *(.debug_pubtypes)

.debug_ranges   0x0000000000000000    0x27c70
 *(.debug_ranges)
 .debug_ranges  0x0000000000000000     0xe020 ./tcmalloc/libtcmalloc.a(libtcmalloc_la-tcmalloc.o)
 .debug_ranges  0x000000000000e020      0x280 ./tcmalloc/libtcmalloc.a(atomicops-internals-x86.o)
 .debug_ranges  0x000000000000e2a0       0x60 ./tcmalloc/libtcmalloc.a(dynamic_annotations.o)
 .debug_ranges  0x000000000000e300     0x1050 ./tcmalloc/libtcmalloc.a(libtcmalloc_internal_la-central_freelist.o)
 .debug_ranges  0x000000000000f350      0x820 ./tcmalloc/libtcmalloc.a(libtcmalloc_internal_la-common.o)
 .debug_ranges  0x000000000000fb70      0x170 ./tcmalloc/libtcmalloc.a(libtcmalloc_internal_la-internal_logging.o)
 .debug_ranges  0x000000000000fce0      0x560 ./tcmalloc/libtcmalloc.a(libtcmalloc_internal_la-malloc_extension.o)
 .debug_ranges  0x0000000000010240     0x38f0 ./tcmalloc/libtcmalloc.a(libtcmalloc_internal_la-malloc_hook.o)
 .debug_ranges  0x0000000000013b30      0xd80 ./tcmalloc/libtcmalloc.a(libtcmalloc_internal_la-page_heap.o)
 .debug_ranges  0x00000000000148b0       0xc0 ./tcmalloc/libtcmalloc.a(libtcmalloc_internal_la-sampler.o)
 .debug_ranges  0x0000000000014970      0x190 ./tcmalloc/libtcmalloc.a(libtcmalloc_internal_la-span.o)
 .debug_ranges  0x0000000000014b00      0x610 ./tcmalloc/libtcmalloc.a(libtcmalloc_internal_la-stack_trace_table.o)
 .debug_ranges  0x0000000000015110      0xba0 ./tcmalloc/libtcmalloc.a(libtcmalloc_internal_la-static_vars.o)
 .debug_ranges  0x0000000000015cb0      0x4e0 ./tcmalloc/libtcmalloc.a(libtcmalloc_internal_la-system-alloc.o)
 .debug_ranges  0x0000000000016190     0x1130 ./tcmalloc/libtcmalloc.a(libtcmalloc_internal_la-thread_cache.o)
 .debug_ranges  0x00000000000172c0       0x90 ./tcmalloc/libtcmalloc.a(logging.o)
 .debug_ranges  0x0000000000017350      0x2a0 ./tcmalloc/libtcmalloc.a(spinlock.o)
 .debug_ranges  0x00000000000175f0      0x4e0 ./tcmalloc/libtcmalloc.a(spinlock_internal.o)
 .debug_ranges  0x0000000000017ad0       0xc0 ./tcmalloc/libtcmalloc.a(stacktrace.o)
 .debug_ranges  0x0000000000017b90      0xe70 ./tcmalloc/libtcmalloc.a(sysinfo.o)
 .debug_ranges  0x0000000000018a00     0x6d40 ./tcmalloc/libtcmalloc.a(libtcmalloc_la-heap-checker.o)
 .debug_ranges  0x000000000001f740       0x60 ./tcmalloc/libtcmalloc.a(libtcmalloc_la-heap-checker-bcad.o)
 .debug_ranges  0x000000000001f7a0     0x33a0 ./tcmalloc/libtcmalloc.a(libtcmalloc_internal_la-heap-profile-table.o)
 .debug_ranges  0x0000000000022b40      0xcb0 ./tcmalloc/libtcmalloc.a(libtcmalloc_internal_la-low_level_alloc.o)
 .debug_ranges  0x00000000000237f0     0x2c80 ./tcmalloc/libtcmalloc.a(libtcmalloc_internal_la-memory_region_map.o)
 .debug_ranges  0x0000000000026470       0x60 ./tcmalloc/libtcmalloc.a(libtcmalloc_internal_la-raw_printer.o)
 .debug_ranges  0x00000000000264d0      0x6f0 ./tcmalloc/libtcmalloc.a(libtcmalloc_internal_la-symbolize.o)
 .debug_ranges  0x0000000000026bc0     0x10b0 ./tcmalloc/libtcmalloc.a(libtcmalloc_la-linuxthreads.o)

.gnu.attributes
 *(.gnu.attributes)

/DISCARD/
 *(.note.GNU-stack)
 *(.gnu_debuglink)
 *(.gnu.lto_*)
OUTPUT(novoalignCSMPI elf64-x86-64)
